

Microchip Technology PIC LITE Macro Assembler V1.41 build -162212810 
                                                                                               Tue Jul 24 16:46:45 2018

Microchip Technology Omniscient Code Generator v1.41 (Free mode) build 201701250102
     1                           	processor	16F1503
     2                           	opt	pw 120
     3                           	opt	lm
     4                           	psect	nvCOMMON,global,class=COMMON,space=1,delta=1
     5                           	psect	cinit,global,class=CODE,merge=1,delta=2
     6                           	psect	cstackCOMMON,global,class=COMMON,space=1,delta=1
     7                           	psect	maintext,global,class=CODE,merge=1,split=1,delta=2
     8                           	psect	text1,local,class=CODE,merge=1,delta=2
     9                           	psect	text2,local,class=CODE,merge=1,delta=2
    10                           	psect	text3,local,class=CODE,merge=1,delta=2
    11                           	psect	text4,local,class=CODE,merge=1,delta=2
    12                           	psect	text5,local,class=CODE,merge=1,delta=2
    13                           	psect	text6,local,class=CODE,merge=1,delta=2
    14                           	psect	text7,local,class=CODE,merge=1,delta=2
    15                           	psect	text8,local,class=CODE,merge=1,delta=2
    16                           	psect	text9,local,class=CODE,merge=1,delta=2
    17                           	psect	text10,local,class=CODE,merge=1,delta=2
    18                           	psect	text11,local,class=CODE,merge=1,delta=2
    19                           	psect	text12,local,class=CODE,merge=1,delta=2
    20                           	psect	text13,local,class=CODE,merge=1,delta=2
    21                           	psect	text14,local,class=CODE,merge=1,delta=2
    22                           	psect	intentry,global,class=CODE,delta=2
    23                           	psect	text16,local,class=CODE,merge=1,delta=2
    24                           	psect	text17,local,class=CODE,merge=1,delta=2
    25                           	psect	text18,local,class=CODE,merge=1,delta=2
    26                           	psect	text19,local,class=CODE,merge=1,delta=2
    27                           	dabs	1,0x7E,2
    28  0000                     
    29                           ; Version 1.41
    30                           ; Generated 25/01/2017 GMT
    31                           ; 
    32                           ; Copyright © 2017, Microchip Technology Inc. and its subsidiaries ("Microchip")
    33                           ; All rights reserved.
    34                           ; 
    35                           ; This software is developed by Microchip Technology Inc. and its subsidiaries ("Microch
      +                          ip").
    36                           ; 
    37                           ; Redistribution and use in source and binary forms, with or without modification, are
    38                           ; permitted provided that the following conditions are met:
    39                           ; 
    40                           ;     1. Redistributions of source code must retain the above copyright notice, this lis
      +                          t of
    41                           ;        conditions and the following disclaimer.
    42                           ; 
    43                           ;     2. Redistributions in binary form must reproduce the above copyright notice, this 
      +                          list
    44                           ;        of conditions and the following disclaimer in the documentation and/or other
    45                           ;        materials provided with the distribution.
    46                           ; 
    47                           ;     3. Microchip's name may not be used to endorse or promote products derived from th
      +                          is
    48                           ;        software without specific prior written permission.
    49                           ; 
    50                           ; THIS SOFTWARE IS PROVIDED BY MICROCHIP "AS IS" AND ANY EXPRESS OR IMPLIED WARRANTIES,
    51                           ; INCLUDING, BUT NOT LIMITED TO, THE IMPLIED WARRANTIES OF MERCHANTABILITY AND FITNESS F
      +                          OR
    52                           ; PURPOSE ARE DISCLAIMED.  IN NO EVENT SHALL MICROCHIP BE LIABLE FOR ANY DIRECT, INDIREC
      +                          T,
    53                           ; INCIDENTAL, SPECIAL, EXEMPLARY, OR CONSEQUENTIAL DAMAGES (INCLUDING BUT NOT LIMITED TO
    54                           ; PROCUREMENT OF SUBSTITUTE GOODS OR SERVICES; LOSS OF USE, DATA OR PROFITS; OR BUSINESS
    55                           ; INTERRUPTION) HOWSOEVER CAUSED AND ON ANY THEORY OF LIABILITY, WHETHER IN CONTRACT, ST
      +                          RICT
    56                           ; LIABILITY, OR TORT (INCLUDING NEGLIGENCE OR OTHERWISE) ARISING IN ANY WAY OUT OF THE U
      +                          SE OF
    57                           ; THIS SOFTWARE, EVEN IF ADVISED OF THE POSSIBILITY OF SUCH DAMAGE.
    58                           ; 
    59                           ; 
    60                           ; Code-generator required, PIC16F1503 Definitions
    61                           ; 
    62                           ; SFR Addresses
    63  0000                     	;# 
    64  0001                     	;# 
    65  0002                     	;# 
    66  0003                     	;# 
    67  0004                     	;# 
    68  0005                     	;# 
    69  0006                     	;# 
    70  0007                     	;# 
    71  0008                     	;# 
    72  0009                     	;# 
    73  000A                     	;# 
    74  000B                     	;# 
    75  000C                     	;# 
    76  000E                     	;# 
    77  0011                     	;# 
    78  0012                     	;# 
    79  0013                     	;# 
    80  0015                     	;# 
    81  0016                     	;# 
    82  0016                     	;# 
    83  0017                     	;# 
    84  0018                     	;# 
    85  0019                     	;# 
    86  001A                     	;# 
    87  001B                     	;# 
    88  001C                     	;# 
    89  008C                     	;# 
    90  008E                     	;# 
    91  0091                     	;# 
    92  0092                     	;# 
    93  0093                     	;# 
    94  0095                     	;# 
    95  0096                     	;# 
    96  0097                     	;# 
    97  0099                     	;# 
    98  009A                     	;# 
    99  009B                     	;# 
   100  009B                     	;# 
   101  009C                     	;# 
   102  009D                     	;# 
   103  009E                     	;# 
   104  009F                     	;# 
   105  010C                     	;# 
   106  010E                     	;# 
   107  0111                     	;# 
   108  0112                     	;# 
   109  0113                     	;# 
   110  0114                     	;# 
   111  0115                     	;# 
   112  0116                     	;# 
   113  0117                     	;# 
   114  0118                     	;# 
   115  0119                     	;# 
   116  011D                     	;# 
   117  018C                     	;# 
   118  018E                     	;# 
   119  0191                     	;# 
   120  0191                     	;# 
   121  0192                     	;# 
   122  0193                     	;# 
   123  0193                     	;# 
   124  0194                     	;# 
   125  0195                     	;# 
   126  0196                     	;# 
   127  0197                     	;# 
   128  020C                     	;# 
   129  0211                     	;# 
   130  0211                     	;# 
   131  0212                     	;# 
   132  0212                     	;# 
   133  0213                     	;# 
   134  0213                     	;# 
   135  0214                     	;# 
   136  0214                     	;# 
   137  0215                     	;# 
   138  0215                     	;# 
   139  0215                     	;# 
   140  0216                     	;# 
   141  0216                     	;# 
   142  0217                     	;# 
   143  0217                     	;# 
   144  0391                     	;# 
   145  0392                     	;# 
   146  0393                     	;# 
   147  0498                     	;# 
   148  0498                     	;# 
   149  0499                     	;# 
   150  049A                     	;# 
   151  049B                     	;# 
   152  049B                     	;# 
   153  049C                     	;# 
   154  049D                     	;# 
   155  049E                     	;# 
   156  049F                     	;# 
   157  0611                     	;# 
   158  0612                     	;# 
   159  0613                     	;# 
   160  0613                     	;# 
   161  0614                     	;# 
   162  0615                     	;# 
   163  0616                     	;# 
   164  0616                     	;# 
   165  0617                     	;# 
   166  0618                     	;# 
   167  0619                     	;# 
   168  0619                     	;# 
   169  061A                     	;# 
   170  061B                     	;# 
   171  061C                     	;# 
   172  061C                     	;# 
   173  0691                     	;# 
   174  0692                     	;# 
   175  0693                     	;# 
   176  0694                     	;# 
   177  0695                     	;# 
   178  0F0F                     	;# 
   179  0F10                     	;# 
   180  0F11                     	;# 
   181  0F12                     	;# 
   182  0F13                     	;# 
   183  0F14                     	;# 
   184  0F15                     	;# 
   185  0F16                     	;# 
   186  0F17                     	;# 
   187  0F18                     	;# 
   188  0F19                     	;# 
   189  0F1A                     	;# 
   190  0F1B                     	;# 
   191  0F1C                     	;# 
   192  0F1D                     	;# 
   193  0F1E                     	;# 
   194  0F1F                     	;# 
   195  0FE3                     	;# 
   196  0FE4                     	;# 
   197  0FE5                     	;# 
   198  0FE6                     	;# 
   199  0FE7                     	;# 
   200  0FE8                     	;# 
   201  0FE9                     	;# 
   202  0FEA                     	;# 
   203  0FEB                     	;# 
   204  0FED                     	;# 
   205  0FEE                     	;# 
   206  0FEF                     	;# 
   207  0000                     	;# 
   208  0001                     	;# 
   209  0002                     	;# 
   210  0003                     	;# 
   211  0004                     	;# 
   212  0005                     	;# 
   213  0006                     	;# 
   214  0007                     	;# 
   215  0008                     	;# 
   216  0009                     	;# 
   217  000A                     	;# 
   218  000B                     	;# 
   219  000C                     	;# 
   220  000E                     	;# 
   221  0011                     	;# 
   222  0012                     	;# 
   223  0013                     	;# 
   224  0015                     	;# 
   225  0016                     	;# 
   226  0016                     	;# 
   227  0017                     	;# 
   228  0018                     	;# 
   229  0019                     	;# 
   230  001A                     	;# 
   231  001B                     	;# 
   232  001C                     	;# 
   233  008C                     	;# 
   234  008E                     	;# 
   235  0091                     	;# 
   236  0092                     	;# 
   237  0093                     	;# 
   238  0095                     	;# 
   239  0096                     	;# 
   240  0097                     	;# 
   241  0099                     	;# 
   242  009A                     	;# 
   243  009B                     	;# 
   244  009B                     	;# 
   245  009C                     	;# 
   246  009D                     	;# 
   247  009E                     	;# 
   248  009F                     	;# 
   249  010C                     	;# 
   250  010E                     	;# 
   251  0111                     	;# 
   252  0112                     	;# 
   253  0113                     	;# 
   254  0114                     	;# 
   255  0115                     	;# 
   256  0116                     	;# 
   257  0117                     	;# 
   258  0118                     	;# 
   259  0119                     	;# 
   260  011D                     	;# 
   261  018C                     	;# 
   262  018E                     	;# 
   263  0191                     	;# 
   264  0191                     	;# 
   265  0192                     	;# 
   266  0193                     	;# 
   267  0193                     	;# 
   268  0194                     	;# 
   269  0195                     	;# 
   270  0196                     	;# 
   271  0197                     	;# 
   272  020C                     	;# 
   273  0211                     	;# 
   274  0211                     	;# 
   275  0212                     	;# 
   276  0212                     	;# 
   277  0213                     	;# 
   278  0213                     	;# 
   279  0214                     	;# 
   280  0214                     	;# 
   281  0215                     	;# 
   282  0215                     	;# 
   283  0215                     	;# 
   284  0216                     	;# 
   285  0216                     	;# 
   286  0217                     	;# 
   287  0217                     	;# 
   288  0391                     	;# 
   289  0392                     	;# 
   290  0393                     	;# 
   291  0498                     	;# 
   292  0498                     	;# 
   293  0499                     	;# 
   294  049A                     	;# 
   295  049B                     	;# 
   296  049B                     	;# 
   297  049C                     	;# 
   298  049D                     	;# 
   299  049E                     	;# 
   300  049F                     	;# 
   301  0611                     	;# 
   302  0612                     	;# 
   303  0613                     	;# 
   304  0613                     	;# 
   305  0614                     	;# 
   306  0615                     	;# 
   307  0616                     	;# 
   308  0616                     	;# 
   309  0617                     	;# 
   310  0618                     	;# 
   311  0619                     	;# 
   312  0619                     	;# 
   313  061A                     	;# 
   314  061B                     	;# 
   315  061C                     	;# 
   316  061C                     	;# 
   317  0691                     	;# 
   318  0692                     	;# 
   319  0693                     	;# 
   320  0694                     	;# 
   321  0695                     	;# 
   322  0F0F                     	;# 
   323  0F10                     	;# 
   324  0F11                     	;# 
   325  0F12                     	;# 
   326  0F13                     	;# 
   327  0F14                     	;# 
   328  0F15                     	;# 
   329  0F16                     	;# 
   330  0F17                     	;# 
   331  0F18                     	;# 
   332  0F19                     	;# 
   333  0F1A                     	;# 
   334  0F1B                     	;# 
   335  0F1C                     	;# 
   336  0F1D                     	;# 
   337  0F1E                     	;# 
   338  0F1F                     	;# 
   339  0FE3                     	;# 
   340  0FE4                     	;# 
   341  0FE5                     	;# 
   342  0FE6                     	;# 
   343  0FE7                     	;# 
   344  0FE8                     	;# 
   345  0FE9                     	;# 
   346  0FEA                     	;# 
   347  0FEB                     	;# 
   348  0FED                     	;# 
   349  0FEE                     	;# 
   350  0FEF                     	;# 
   351  0000                     	;# 
   352  0001                     	;# 
   353  0002                     	;# 
   354  0003                     	;# 
   355  0004                     	;# 
   356  0005                     	;# 
   357  0006                     	;# 
   358  0007                     	;# 
   359  0008                     	;# 
   360  0009                     	;# 
   361  000A                     	;# 
   362  000B                     	;# 
   363  000C                     	;# 
   364  000E                     	;# 
   365  0011                     	;# 
   366  0012                     	;# 
   367  0013                     	;# 
   368  0015                     	;# 
   369  0016                     	;# 
   370  0016                     	;# 
   371  0017                     	;# 
   372  0018                     	;# 
   373  0019                     	;# 
   374  001A                     	;# 
   375  001B                     	;# 
   376  001C                     	;# 
   377  008C                     	;# 
   378  008E                     	;# 
   379  0091                     	;# 
   380  0092                     	;# 
   381  0093                     	;# 
   382  0095                     	;# 
   383  0096                     	;# 
   384  0097                     	;# 
   385  0099                     	;# 
   386  009A                     	;# 
   387  009B                     	;# 
   388  009B                     	;# 
   389  009C                     	;# 
   390  009D                     	;# 
   391  009E                     	;# 
   392  009F                     	;# 
   393  010C                     	;# 
   394  010E                     	;# 
   395  0111                     	;# 
   396  0112                     	;# 
   397  0113                     	;# 
   398  0114                     	;# 
   399  0115                     	;# 
   400  0116                     	;# 
   401  0117                     	;# 
   402  0118                     	;# 
   403  0119                     	;# 
   404  011D                     	;# 
   405  018C                     	;# 
   406  018E                     	;# 
   407  0191                     	;# 
   408  0191                     	;# 
   409  0192                     	;# 
   410  0193                     	;# 
   411  0193                     	;# 
   412  0194                     	;# 
   413  0195                     	;# 
   414  0196                     	;# 
   415  0197                     	;# 
   416  020C                     	;# 
   417  0211                     	;# 
   418  0211                     	;# 
   419  0212                     	;# 
   420  0212                     	;# 
   421  0213                     	;# 
   422  0213                     	;# 
   423  0214                     	;# 
   424  0214                     	;# 
   425  0215                     	;# 
   426  0215                     	;# 
   427  0215                     	;# 
   428  0216                     	;# 
   429  0216                     	;# 
   430  0217                     	;# 
   431  0217                     	;# 
   432  0391                     	;# 
   433  0392                     	;# 
   434  0393                     	;# 
   435  0498                     	;# 
   436  0498                     	;# 
   437  0499                     	;# 
   438  049A                     	;# 
   439  049B                     	;# 
   440  049B                     	;# 
   441  049C                     	;# 
   442  049D                     	;# 
   443  049E                     	;# 
   444  049F                     	;# 
   445  0611                     	;# 
   446  0612                     	;# 
   447  0613                     	;# 
   448  0613                     	;# 
   449  0614                     	;# 
   450  0615                     	;# 
   451  0616                     	;# 
   452  0616                     	;# 
   453  0617                     	;# 
   454  0618                     	;# 
   455  0619                     	;# 
   456  0619                     	;# 
   457  061A                     	;# 
   458  061B                     	;# 
   459  061C                     	;# 
   460  061C                     	;# 
   461  0691                     	;# 
   462  0692                     	;# 
   463  0693                     	;# 
   464  0694                     	;# 
   465  0695                     	;# 
   466  0F0F                     	;# 
   467  0F10                     	;# 
   468  0F11                     	;# 
   469  0F12                     	;# 
   470  0F13                     	;# 
   471  0F14                     	;# 
   472  0F15                     	;# 
   473  0F16                     	;# 
   474  0F17                     	;# 
   475  0F18                     	;# 
   476  0F19                     	;# 
   477  0F1A                     	;# 
   478  0F1B                     	;# 
   479  0F1C                     	;# 
   480  0F1D                     	;# 
   481  0F1E                     	;# 
   482  0F1F                     	;# 
   483  0FE3                     	;# 
   484  0FE4                     	;# 
   485  0FE5                     	;# 
   486  0FE6                     	;# 
   487  0FE7                     	;# 
   488  0FE8                     	;# 
   489  0FE9                     	;# 
   490  0FEA                     	;# 
   491  0FEB                     	;# 
   492  0FED                     	;# 
   493  0FEE                     	;# 
   494  0FEF                     	;# 
   495  0000                     	;# 
   496  0001                     	;# 
   497  0002                     	;# 
   498  0003                     	;# 
   499  0004                     	;# 
   500  0005                     	;# 
   501  0006                     	;# 
   502  0007                     	;# 
   503  0008                     	;# 
   504  0009                     	;# 
   505  000A                     	;# 
   506  000B                     	;# 
   507  000C                     	;# 
   508  000E                     	;# 
   509  0011                     	;# 
   510  0012                     	;# 
   511  0013                     	;# 
   512  0015                     	;# 
   513  0016                     	;# 
   514  0016                     	;# 
   515  0017                     	;# 
   516  0018                     	;# 
   517  0019                     	;# 
   518  001A                     	;# 
   519  001B                     	;# 
   520  001C                     	;# 
   521  008C                     	;# 
   522  008E                     	;# 
   523  0091                     	;# 
   524  0092                     	;# 
   525  0093                     	;# 
   526  0095                     	;# 
   527  0096                     	;# 
   528  0097                     	;# 
   529  0099                     	;# 
   530  009A                     	;# 
   531  009B                     	;# 
   532  009B                     	;# 
   533  009C                     	;# 
   534  009D                     	;# 
   535  009E                     	;# 
   536  009F                     	;# 
   537  010C                     	;# 
   538  010E                     	;# 
   539  0111                     	;# 
   540  0112                     	;# 
   541  0113                     	;# 
   542  0114                     	;# 
   543  0115                     	;# 
   544  0116                     	;# 
   545  0117                     	;# 
   546  0118                     	;# 
   547  0119                     	;# 
   548  011D                     	;# 
   549  018C                     	;# 
   550  018E                     	;# 
   551  0191                     	;# 
   552  0191                     	;# 
   553  0192                     	;# 
   554  0193                     	;# 
   555  0193                     	;# 
   556  0194                     	;# 
   557  0195                     	;# 
   558  0196                     	;# 
   559  0197                     	;# 
   560  020C                     	;# 
   561  0211                     	;# 
   562  0211                     	;# 
   563  0212                     	;# 
   564  0212                     	;# 
   565  0213                     	;# 
   566  0213                     	;# 
   567  0214                     	;# 
   568  0214                     	;# 
   569  0215                     	;# 
   570  0215                     	;# 
   571  0215                     	;# 
   572  0216                     	;# 
   573  0216                     	;# 
   574  0217                     	;# 
   575  0217                     	;# 
   576  0391                     	;# 
   577  0392                     	;# 
   578  0393                     	;# 
   579  0498                     	;# 
   580  0498                     	;# 
   581  0499                     	;# 
   582  049A                     	;# 
   583  049B                     	;# 
   584  049B                     	;# 
   585  049C                     	;# 
   586  049D                     	;# 
   587  049E                     	;# 
   588  049F                     	;# 
   589  0611                     	;# 
   590  0612                     	;# 
   591  0613                     	;# 
   592  0613                     	;# 
   593  0614                     	;# 
   594  0615                     	;# 
   595  0616                     	;# 
   596  0616                     	;# 
   597  0617                     	;# 
   598  0618                     	;# 
   599  0619                     	;# 
   600  0619                     	;# 
   601  061A                     	;# 
   602  061B                     	;# 
   603  061C                     	;# 
   604  061C                     	;# 
   605  0691                     	;# 
   606  0692                     	;# 
   607  0693                     	;# 
   608  0694                     	;# 
   609  0695                     	;# 
   610  0F0F                     	;# 
   611  0F10                     	;# 
   612  0F11                     	;# 
   613  0F12                     	;# 
   614  0F13                     	;# 
   615  0F14                     	;# 
   616  0F15                     	;# 
   617  0F16                     	;# 
   618  0F17                     	;# 
   619  0F18                     	;# 
   620  0F19                     	;# 
   621  0F1A                     	;# 
   622  0F1B                     	;# 
   623  0F1C                     	;# 
   624  0F1D                     	;# 
   625  0F1E                     	;# 
   626  0F1F                     	;# 
   627  0FE3                     	;# 
   628  0FE4                     	;# 
   629  0FE5                     	;# 
   630  0FE6                     	;# 
   631  0FE7                     	;# 
   632  0FE8                     	;# 
   633  0FE9                     	;# 
   634  0FEA                     	;# 
   635  0FEB                     	;# 
   636  0FED                     	;# 
   637  0FEE                     	;# 
   638  0FEF                     	;# 
   639  0000                     	;# 
   640  0001                     	;# 
   641  0002                     	;# 
   642  0003                     	;# 
   643  0004                     	;# 
   644  0005                     	;# 
   645  0006                     	;# 
   646  0007                     	;# 
   647  0008                     	;# 
   648  0009                     	;# 
   649  000A                     	;# 
   650  000B                     	;# 
   651  000C                     	;# 
   652  000E                     	;# 
   653  0011                     	;# 
   654  0012                     	;# 
   655  0013                     	;# 
   656  0015                     	;# 
   657  0016                     	;# 
   658  0016                     	;# 
   659  0017                     	;# 
   660  0018                     	;# 
   661  0019                     	;# 
   662  001A                     	;# 
   663  001B                     	;# 
   664  001C                     	;# 
   665  008C                     	;# 
   666  008E                     	;# 
   667  0091                     	;# 
   668  0092                     	;# 
   669  0093                     	;# 
   670  0095                     	;# 
   671  0096                     	;# 
   672  0097                     	;# 
   673  0099                     	;# 
   674  009A                     	;# 
   675  009B                     	;# 
   676  009B                     	;# 
   677  009C                     	;# 
   678  009D                     	;# 
   679  009E                     	;# 
   680  009F                     	;# 
   681  010C                     	;# 
   682  010E                     	;# 
   683  0111                     	;# 
   684  0112                     	;# 
   685  0113                     	;# 
   686  0114                     	;# 
   687  0115                     	;# 
   688  0116                     	;# 
   689  0117                     	;# 
   690  0118                     	;# 
   691  0119                     	;# 
   692  011D                     	;# 
   693  018C                     	;# 
   694  018E                     	;# 
   695  0191                     	;# 
   696  0191                     	;# 
   697  0192                     	;# 
   698  0193                     	;# 
   699  0193                     	;# 
   700  0194                     	;# 
   701  0195                     	;# 
   702  0196                     	;# 
   703  0197                     	;# 
   704  020C                     	;# 
   705  0211                     	;# 
   706  0211                     	;# 
   707  0212                     	;# 
   708  0212                     	;# 
   709  0213                     	;# 
   710  0213                     	;# 
   711  0214                     	;# 
   712  0214                     	;# 
   713  0215                     	;# 
   714  0215                     	;# 
   715  0215                     	;# 
   716  0216                     	;# 
   717  0216                     	;# 
   718  0217                     	;# 
   719  0217                     	;# 
   720  0391                     	;# 
   721  0392                     	;# 
   722  0393                     	;# 
   723  0498                     	;# 
   724  0498                     	;# 
   725  0499                     	;# 
   726  049A                     	;# 
   727  049B                     	;# 
   728  049B                     	;# 
   729  049C                     	;# 
   730  049D                     	;# 
   731  049E                     	;# 
   732  049F                     	;# 
   733  0611                     	;# 
   734  0612                     	;# 
   735  0613                     	;# 
   736  0613                     	;# 
   737  0614                     	;# 
   738  0615                     	;# 
   739  0616                     	;# 
   740  0616                     	;# 
   741  0617                     	;# 
   742  0618                     	;# 
   743  0619                     	;# 
   744  0619                     	;# 
   745  061A                     	;# 
   746  061B                     	;# 
   747  061C                     	;# 
   748  061C                     	;# 
   749  0691                     	;# 
   750  0692                     	;# 
   751  0693                     	;# 
   752  0694                     	;# 
   753  0695                     	;# 
   754  0F0F                     	;# 
   755  0F10                     	;# 
   756  0F11                     	;# 
   757  0F12                     	;# 
   758  0F13                     	;# 
   759  0F14                     	;# 
   760  0F15                     	;# 
   761  0F16                     	;# 
   762  0F17                     	;# 
   763  0F18                     	;# 
   764  0F19                     	;# 
   765  0F1A                     	;# 
   766  0F1B                     	;# 
   767  0F1C                     	;# 
   768  0F1D                     	;# 
   769  0F1E                     	;# 
   770  0F1F                     	;# 
   771  0FE3                     	;# 
   772  0FE4                     	;# 
   773  0FE5                     	;# 
   774  0FE6                     	;# 
   775  0FE7                     	;# 
   776  0FE8                     	;# 
   777  0FE9                     	;# 
   778  0FEA                     	;# 
   779  0FEB                     	;# 
   780  0FED                     	;# 
   781  0FEE                     	;# 
   782  0FEF                     	;# 
   783  0000                     	;# 
   784  0001                     	;# 
   785  0002                     	;# 
   786  0003                     	;# 
   787  0004                     	;# 
   788  0005                     	;# 
   789  0006                     	;# 
   790  0007                     	;# 
   791  0008                     	;# 
   792  0009                     	;# 
   793  000A                     	;# 
   794  000B                     	;# 
   795  000C                     	;# 
   796  000E                     	;# 
   797  0011                     	;# 
   798  0012                     	;# 
   799  0013                     	;# 
   800  0015                     	;# 
   801  0016                     	;# 
   802  0016                     	;# 
   803  0017                     	;# 
   804  0018                     	;# 
   805  0019                     	;# 
   806  001A                     	;# 
   807  001B                     	;# 
   808  001C                     	;# 
   809  008C                     	;# 
   810  008E                     	;# 
   811  0091                     	;# 
   812  0092                     	;# 
   813  0093                     	;# 
   814  0095                     	;# 
   815  0096                     	;# 
   816  0097                     	;# 
   817  0099                     	;# 
   818  009A                     	;# 
   819  009B                     	;# 
   820  009B                     	;# 
   821  009C                     	;# 
   822  009D                     	;# 
   823  009E                     	;# 
   824  009F                     	;# 
   825  010C                     	;# 
   826  010E                     	;# 
   827  0111                     	;# 
   828  0112                     	;# 
   829  0113                     	;# 
   830  0114                     	;# 
   831  0115                     	;# 
   832  0116                     	;# 
   833  0117                     	;# 
   834  0118                     	;# 
   835  0119                     	;# 
   836  011D                     	;# 
   837  018C                     	;# 
   838  018E                     	;# 
   839  0191                     	;# 
   840  0191                     	;# 
   841  0192                     	;# 
   842  0193                     	;# 
   843  0193                     	;# 
   844  0194                     	;# 
   845  0195                     	;# 
   846  0196                     	;# 
   847  0197                     	;# 
   848  020C                     	;# 
   849  0211                     	;# 
   850  0211                     	;# 
   851  0212                     	;# 
   852  0212                     	;# 
   853  0213                     	;# 
   854  0213                     	;# 
   855  0214                     	;# 
   856  0214                     	;# 
   857  0215                     	;# 
   858  0215                     	;# 
   859  0215                     	;# 
   860  0216                     	;# 
   861  0216                     	;# 
   862  0217                     	;# 
   863  0217                     	;# 
   864  0391                     	;# 
   865  0392                     	;# 
   866  0393                     	;# 
   867  0498                     	;# 
   868  0498                     	;# 
   869  0499                     	;# 
   870  049A                     	;# 
   871  049B                     	;# 
   872  049B                     	;# 
   873  049C                     	;# 
   874  049D                     	;# 
   875  049E                     	;# 
   876  049F                     	;# 
   877  0611                     	;# 
   878  0612                     	;# 
   879  0613                     	;# 
   880  0613                     	;# 
   881  0614                     	;# 
   882  0615                     	;# 
   883  0616                     	;# 
   884  0616                     	;# 
   885  0617                     	;# 
   886  0618                     	;# 
   887  0619                     	;# 
   888  0619                     	;# 
   889  061A                     	;# 
   890  061B                     	;# 
   891  061C                     	;# 
   892  061C                     	;# 
   893  0691                     	;# 
   894  0692                     	;# 
   895  0693                     	;# 
   896  0694                     	;# 
   897  0695                     	;# 
   898  0F0F                     	;# 
   899  0F10                     	;# 
   900  0F11                     	;# 
   901  0F12                     	;# 
   902  0F13                     	;# 
   903  0F14                     	;# 
   904  0F15                     	;# 
   905  0F16                     	;# 
   906  0F17                     	;# 
   907  0F18                     	;# 
   908  0F19                     	;# 
   909  0F1A                     	;# 
   910  0F1B                     	;# 
   911  0F1C                     	;# 
   912  0F1D                     	;# 
   913  0F1E                     	;# 
   914  0F1F                     	;# 
   915  0FE3                     	;# 
   916  0FE4                     	;# 
   917  0FE5                     	;# 
   918  0FE6                     	;# 
   919  0FE7                     	;# 
   920  0FE8                     	;# 
   921  0FE9                     	;# 
   922  0FEA                     	;# 
   923  0FEB                     	;# 
   924  0FED                     	;# 
   925  0FEE                     	;# 
   926  0FEF                     	;# 
   927  0000                     	;# 
   928  0001                     	;# 
   929  0002                     	;# 
   930  0003                     	;# 
   931  0004                     	;# 
   932  0005                     	;# 
   933  0006                     	;# 
   934  0007                     	;# 
   935  0008                     	;# 
   936  0009                     	;# 
   937  000A                     	;# 
   938  000B                     	;# 
   939  000C                     	;# 
   940  000E                     	;# 
   941  0011                     	;# 
   942  0012                     	;# 
   943  0013                     	;# 
   944  0015                     	;# 
   945  0016                     	;# 
   946  0016                     	;# 
   947  0017                     	;# 
   948  0018                     	;# 
   949  0019                     	;# 
   950  001A                     	;# 
   951  001B                     	;# 
   952  001C                     	;# 
   953  008C                     	;# 
   954  008E                     	;# 
   955  0091                     	;# 
   956  0092                     	;# 
   957  0093                     	;# 
   958  0095                     	;# 
   959  0096                     	;# 
   960  0097                     	;# 
   961  0099                     	;# 
   962  009A                     	;# 
   963  009B                     	;# 
   964  009B                     	;# 
   965  009C                     	;# 
   966  009D                     	;# 
   967  009E                     	;# 
   968  009F                     	;# 
   969  010C                     	;# 
   970  010E                     	;# 
   971  0111                     	;# 
   972  0112                     	;# 
   973  0113                     	;# 
   974  0114                     	;# 
   975  0115                     	;# 
   976  0116                     	;# 
   977  0117                     	;# 
   978  0118                     	;# 
   979  0119                     	;# 
   980  011D                     	;# 
   981  018C                     	;# 
   982  018E                     	;# 
   983  0191                     	;# 
   984  0191                     	;# 
   985  0192                     	;# 
   986  0193                     	;# 
   987  0193                     	;# 
   988  0194                     	;# 
   989  0195                     	;# 
   990  0196                     	;# 
   991  0197                     	;# 
   992  020C                     	;# 
   993  0211                     	;# 
   994  0211                     	;# 
   995  0212                     	;# 
   996  0212                     	;# 
   997  0213                     	;# 
   998  0213                     	;# 
   999  0214                     	;# 
  1000  0214                     	;# 
  1001  0215                     	;# 
  1002  0215                     	;# 
  1003  0215                     	;# 
  1004  0216                     	;# 
  1005  0216                     	;# 
  1006  0217                     	;# 
  1007  0217                     	;# 
  1008  0391                     	;# 
  1009  0392                     	;# 
  1010  0393                     	;# 
  1011  0498                     	;# 
  1012  0498                     	;# 
  1013  0499                     	;# 
  1014  049A                     	;# 
  1015  049B                     	;# 
  1016  049B                     	;# 
  1017  049C                     	;# 
  1018  049D                     	;# 
  1019  049E                     	;# 
  1020  049F                     	;# 
  1021  0611                     	;# 
  1022  0612                     	;# 
  1023  0613                     	;# 
  1024  0613                     	;# 
  1025  0614                     	;# 
  1026  0615                     	;# 
  1027  0616                     	;# 
  1028  0616                     	;# 
  1029  0617                     	;# 
  1030  0618                     	;# 
  1031  0619                     	;# 
  1032  0619                     	;# 
  1033  061A                     	;# 
  1034  061B                     	;# 
  1035  061C                     	;# 
  1036  061C                     	;# 
  1037  0691                     	;# 
  1038  0692                     	;# 
  1039  0693                     	;# 
  1040  0694                     	;# 
  1041  0695                     	;# 
  1042  0F0F                     	;# 
  1043  0F10                     	;# 
  1044  0F11                     	;# 
  1045  0F12                     	;# 
  1046  0F13                     	;# 
  1047  0F14                     	;# 
  1048  0F15                     	;# 
  1049  0F16                     	;# 
  1050  0F17                     	;# 
  1051  0F18                     	;# 
  1052  0F19                     	;# 
  1053  0F1A                     	;# 
  1054  0F1B                     	;# 
  1055  0F1C                     	;# 
  1056  0F1D                     	;# 
  1057  0F1E                     	;# 
  1058  0F1F                     	;# 
  1059  0FE3                     	;# 
  1060  0FE4                     	;# 
  1061  0FE5                     	;# 
  1062  0FE6                     	;# 
  1063  0FE7                     	;# 
  1064  0FE8                     	;# 
  1065  0FE9                     	;# 
  1066  0FEA                     	;# 
  1067  0FEB                     	;# 
  1068  0FED                     	;# 
  1069  0FEE                     	;# 
  1070  0FEF                     	;# 
  1071  0000                     	;# 
  1072  0001                     	;# 
  1073  0002                     	;# 
  1074  0003                     	;# 
  1075  0004                     	;# 
  1076  0005                     	;# 
  1077  0006                     	;# 
  1078  0007                     	;# 
  1079  0008                     	;# 
  1080  0009                     	;# 
  1081  000A                     	;# 
  1082  000B                     	;# 
  1083  000C                     	;# 
  1084  000E                     	;# 
  1085  0011                     	;# 
  1086  0012                     	;# 
  1087  0013                     	;# 
  1088  0015                     	;# 
  1089  0016                     	;# 
  1090  0016                     	;# 
  1091  0017                     	;# 
  1092  0018                     	;# 
  1093  0019                     	;# 
  1094  001A                     	;# 
  1095  001B                     	;# 
  1096  001C                     	;# 
  1097  008C                     	;# 
  1098  008E                     	;# 
  1099  0091                     	;# 
  1100  0092                     	;# 
  1101  0093                     	;# 
  1102  0095                     	;# 
  1103  0096                     	;# 
  1104  0097                     	;# 
  1105  0099                     	;# 
  1106  009A                     	;# 
  1107  009B                     	;# 
  1108  009B                     	;# 
  1109  009C                     	;# 
  1110  009D                     	;# 
  1111  009E                     	;# 
  1112  009F                     	;# 
  1113  010C                     	;# 
  1114  010E                     	;# 
  1115  0111                     	;# 
  1116  0112                     	;# 
  1117  0113                     	;# 
  1118  0114                     	;# 
  1119  0115                     	;# 
  1120  0116                     	;# 
  1121  0117                     	;# 
  1122  0118                     	;# 
  1123  0119                     	;# 
  1124  011D                     	;# 
  1125  018C                     	;# 
  1126  018E                     	;# 
  1127  0191                     	;# 
  1128  0191                     	;# 
  1129  0192                     	;# 
  1130  0193                     	;# 
  1131  0193                     	;# 
  1132  0194                     	;# 
  1133  0195                     	;# 
  1134  0196                     	;# 
  1135  0197                     	;# 
  1136  020C                     	;# 
  1137  0211                     	;# 
  1138  0211                     	;# 
  1139  0212                     	;# 
  1140  0212                     	;# 
  1141  0213                     	;# 
  1142  0213                     	;# 
  1143  0214                     	;# 
  1144  0214                     	;# 
  1145  0215                     	;# 
  1146  0215                     	;# 
  1147  0215                     	;# 
  1148  0216                     	;# 
  1149  0216                     	;# 
  1150  0217                     	;# 
  1151  0217                     	;# 
  1152  0391                     	;# 
  1153  0392                     	;# 
  1154  0393                     	;# 
  1155  0498                     	;# 
  1156  0498                     	;# 
  1157  0499                     	;# 
  1158  049A                     	;# 
  1159  049B                     	;# 
  1160  049B                     	;# 
  1161  049C                     	;# 
  1162  049D                     	;# 
  1163  049E                     	;# 
  1164  049F                     	;# 
  1165  0611                     	;# 
  1166  0612                     	;# 
  1167  0613                     	;# 
  1168  0613                     	;# 
  1169  0614                     	;# 
  1170  0615                     	;# 
  1171  0616                     	;# 
  1172  0616                     	;# 
  1173  0617                     	;# 
  1174  0618                     	;# 
  1175  0619                     	;# 
  1176  0619                     	;# 
  1177  061A                     	;# 
  1178  061B                     	;# 
  1179  061C                     	;# 
  1180  061C                     	;# 
  1181  0691                     	;# 
  1182  0692                     	;# 
  1183  0693                     	;# 
  1184  0694                     	;# 
  1185  0695                     	;# 
  1186  0F0F                     	;# 
  1187  0F10                     	;# 
  1188  0F11                     	;# 
  1189  0F12                     	;# 
  1190  0F13                     	;# 
  1191  0F14                     	;# 
  1192  0F15                     	;# 
  1193  0F16                     	;# 
  1194  0F17                     	;# 
  1195  0F18                     	;# 
  1196  0F19                     	;# 
  1197  0F1A                     	;# 
  1198  0F1B                     	;# 
  1199  0F1C                     	;# 
  1200  0F1D                     	;# 
  1201  0F1E                     	;# 
  1202  0F1F                     	;# 
  1203  0FE3                     	;# 
  1204  0FE4                     	;# 
  1205  0FE5                     	;# 
  1206  0FE6                     	;# 
  1207  0FE7                     	;# 
  1208  0FE8                     	;# 
  1209  0FE9                     	;# 
  1210  0FEA                     	;# 
  1211  0FEB                     	;# 
  1212  0FED                     	;# 
  1213  0FEE                     	;# 
  1214  0FEF                     	;# 
  1215  0000                     	;# 
  1216  0001                     	;# 
  1217  0002                     	;# 
  1218  0003                     	;# 
  1219  0004                     	;# 
  1220  0005                     	;# 
  1221  0006                     	;# 
  1222  0007                     	;# 
  1223  0008                     	;# 
  1224  0009                     	;# 
  1225  000A                     	;# 
  1226  000B                     	;# 
  1227  000C                     	;# 
  1228  000E                     	;# 
  1229  0011                     	;# 
  1230  0012                     	;# 
  1231  0013                     	;# 
  1232  0015                     	;# 
  1233  0016                     	;# 
  1234  0016                     	;# 
  1235  0017                     	;# 
  1236  0018                     	;# 
  1237  0019                     	;# 
  1238  001A                     	;# 
  1239  001B                     	;# 
  1240  001C                     	;# 
  1241  008C                     	;# 
  1242  008E                     	;# 
  1243  0091                     	;# 
  1244  0092                     	;# 
  1245  0093                     	;# 
  1246  0095                     	;# 
  1247  0096                     	;# 
  1248  0097                     	;# 
  1249  0099                     	;# 
  1250  009A                     	;# 
  1251  009B                     	;# 
  1252  009B                     	;# 
  1253  009C                     	;# 
  1254  009D                     	;# 
  1255  009E                     	;# 
  1256  009F                     	;# 
  1257  010C                     	;# 
  1258  010E                     	;# 
  1259  0111                     	;# 
  1260  0112                     	;# 
  1261  0113                     	;# 
  1262  0114                     	;# 
  1263  0115                     	;# 
  1264  0116                     	;# 
  1265  0117                     	;# 
  1266  0118                     	;# 
  1267  0119                     	;# 
  1268  011D                     	;# 
  1269  018C                     	;# 
  1270  018E                     	;# 
  1271  0191                     	;# 
  1272  0191                     	;# 
  1273  0192                     	;# 
  1274  0193                     	;# 
  1275  0193                     	;# 
  1276  0194                     	;# 
  1277  0195                     	;# 
  1278  0196                     	;# 
  1279  0197                     	;# 
  1280  020C                     	;# 
  1281  0211                     	;# 
  1282  0211                     	;# 
  1283  0212                     	;# 
  1284  0212                     	;# 
  1285  0213                     	;# 
  1286  0213                     	;# 
  1287  0214                     	;# 
  1288  0214                     	;# 
  1289  0215                     	;# 
  1290  0215                     	;# 
  1291  0215                     	;# 
  1292  0216                     	;# 
  1293  0216                     	;# 
  1294  0217                     	;# 
  1295  0217                     	;# 
  1296  0391                     	;# 
  1297  0392                     	;# 
  1298  0393                     	;# 
  1299  0498                     	;# 
  1300  0498                     	;# 
  1301  0499                     	;# 
  1302  049A                     	;# 
  1303  049B                     	;# 
  1304  049B                     	;# 
  1305  049C                     	;# 
  1306  049D                     	;# 
  1307  049E                     	;# 
  1308  049F                     	;# 
  1309  0611                     	;# 
  1310  0612                     	;# 
  1311  0613                     	;# 
  1312  0613                     	;# 
  1313  0614                     	;# 
  1314  0615                     	;# 
  1315  0616                     	;# 
  1316  0616                     	;# 
  1317  0617                     	;# 
  1318  0618                     	;# 
  1319  0619                     	;# 
  1320  0619                     	;# 
  1321  061A                     	;# 
  1322  061B                     	;# 
  1323  061C                     	;# 
  1324  061C                     	;# 
  1325  0691                     	;# 
  1326  0692                     	;# 
  1327  0693                     	;# 
  1328  0694                     	;# 
  1329  0695                     	;# 
  1330  0F0F                     	;# 
  1331  0F10                     	;# 
  1332  0F11                     	;# 
  1333  0F12                     	;# 
  1334  0F13                     	;# 
  1335  0F14                     	;# 
  1336  0F15                     	;# 
  1337  0F16                     	;# 
  1338  0F17                     	;# 
  1339  0F18                     	;# 
  1340  0F19                     	;# 
  1341  0F1A                     	;# 
  1342  0F1B                     	;# 
  1343  0F1C                     	;# 
  1344  0F1D                     	;# 
  1345  0F1E                     	;# 
  1346  0F1F                     	;# 
  1347  0FE3                     	;# 
  1348  0FE4                     	;# 
  1349  0FE5                     	;# 
  1350  0FE6                     	;# 
  1351  0FE7                     	;# 
  1352  0FE8                     	;# 
  1353  0FE9                     	;# 
  1354  0FEA                     	;# 
  1355  0FEB                     	;# 
  1356  0FED                     	;# 
  1357  0FEE                     	;# 
  1358  0FEF                     	;# 
  1359  0000                     	;# 
  1360  0001                     	;# 
  1361  0002                     	;# 
  1362  0003                     	;# 
  1363  0004                     	;# 
  1364  0005                     	;# 
  1365  0006                     	;# 
  1366  0007                     	;# 
  1367  0008                     	;# 
  1368  0009                     	;# 
  1369  000A                     	;# 
  1370  000B                     	;# 
  1371  000C                     	;# 
  1372  000E                     	;# 
  1373  0011                     	;# 
  1374  0012                     	;# 
  1375  0013                     	;# 
  1376  0015                     	;# 
  1377  0016                     	;# 
  1378  0016                     	;# 
  1379  0017                     	;# 
  1380  0018                     	;# 
  1381  0019                     	;# 
  1382  001A                     	;# 
  1383  001B                     	;# 
  1384  001C                     	;# 
  1385  008C                     	;# 
  1386  008E                     	;# 
  1387  0091                     	;# 
  1388  0092                     	;# 
  1389  0093                     	;# 
  1390  0095                     	;# 
  1391  0096                     	;# 
  1392  0097                     	;# 
  1393  0099                     	;# 
  1394  009A                     	;# 
  1395  009B                     	;# 
  1396  009B                     	;# 
  1397  009C                     	;# 
  1398  009D                     	;# 
  1399  009E                     	;# 
  1400  009F                     	;# 
  1401  010C                     	;# 
  1402  010E                     	;# 
  1403  0111                     	;# 
  1404  0112                     	;# 
  1405  0113                     	;# 
  1406  0114                     	;# 
  1407  0115                     	;# 
  1408  0116                     	;# 
  1409  0117                     	;# 
  1410  0118                     	;# 
  1411  0119                     	;# 
  1412  011D                     	;# 
  1413  018C                     	;# 
  1414  018E                     	;# 
  1415  0191                     	;# 
  1416  0191                     	;# 
  1417  0192                     	;# 
  1418  0193                     	;# 
  1419  0193                     	;# 
  1420  0194                     	;# 
  1421  0195                     	;# 
  1422  0196                     	;# 
  1423  0197                     	;# 
  1424  020C                     	;# 
  1425  0211                     	;# 
  1426  0211                     	;# 
  1427  0212                     	;# 
  1428  0212                     	;# 
  1429  0213                     	;# 
  1430  0213                     	;# 
  1431  0214                     	;# 
  1432  0214                     	;# 
  1433  0215                     	;# 
  1434  0215                     	;# 
  1435  0215                     	;# 
  1436  0216                     	;# 
  1437  0216                     	;# 
  1438  0217                     	;# 
  1439  0217                     	;# 
  1440  0391                     	;# 
  1441  0392                     	;# 
  1442  0393                     	;# 
  1443  0498                     	;# 
  1444  0498                     	;# 
  1445  0499                     	;# 
  1446  049A                     	;# 
  1447  049B                     	;# 
  1448  049B                     	;# 
  1449  049C                     	;# 
  1450  049D                     	;# 
  1451  049E                     	;# 
  1452  049F                     	;# 
  1453  0611                     	;# 
  1454  0612                     	;# 
  1455  0613                     	;# 
  1456  0613                     	;# 
  1457  0614                     	;# 
  1458  0615                     	;# 
  1459  0616                     	;# 
  1460  0616                     	;# 
  1461  0617                     	;# 
  1462  0618                     	;# 
  1463  0619                     	;# 
  1464  0619                     	;# 
  1465  061A                     	;# 
  1466  061B                     	;# 
  1467  061C                     	;# 
  1468  061C                     	;# 
  1469  0691                     	;# 
  1470  0692                     	;# 
  1471  0693                     	;# 
  1472  0694                     	;# 
  1473  0695                     	;# 
  1474  0F0F                     	;# 
  1475  0F10                     	;# 
  1476  0F11                     	;# 
  1477  0F12                     	;# 
  1478  0F13                     	;# 
  1479  0F14                     	;# 
  1480  0F15                     	;# 
  1481  0F16                     	;# 
  1482  0F17                     	;# 
  1483  0F18                     	;# 
  1484  0F19                     	;# 
  1485  0F1A                     	;# 
  1486  0F1B                     	;# 
  1487  0F1C                     	;# 
  1488  0F1D                     	;# 
  1489  0F1E                     	;# 
  1490  0F1F                     	;# 
  1491  0FE3                     	;# 
  1492  0FE4                     	;# 
  1493  0FE5                     	;# 
  1494  0FE6                     	;# 
  1495  0FE7                     	;# 
  1496  0FE8                     	;# 
  1497  0FE9                     	;# 
  1498  0FEA                     	;# 
  1499  0FEB                     	;# 
  1500  0FED                     	;# 
  1501  0FEE                     	;# 
  1502  0FEF                     	;# 
  1503  0000                     	;# 
  1504  0001                     	;# 
  1505  0002                     	;# 
  1506  0003                     	;# 
  1507  0004                     	;# 
  1508  0005                     	;# 
  1509  0006                     	;# 
  1510  0007                     	;# 
  1511  0008                     	;# 
  1512  0009                     	;# 
  1513  000A                     	;# 
  1514  000B                     	;# 
  1515  000C                     	;# 
  1516  000E                     	;# 
  1517  0011                     	;# 
  1518  0012                     	;# 
  1519  0013                     	;# 
  1520  0015                     	;# 
  1521  0016                     	;# 
  1522  0016                     	;# 
  1523  0017                     	;# 
  1524  0018                     	;# 
  1525  0019                     	;# 
  1526  001A                     	;# 
  1527  001B                     	;# 
  1528  001C                     	;# 
  1529  008C                     	;# 
  1530  008E                     	;# 
  1531  0091                     	;# 
  1532  0092                     	;# 
  1533  0093                     	;# 
  1534  0095                     	;# 
  1535  0096                     	;# 
  1536  0097                     	;# 
  1537  0099                     	;# 
  1538  009A                     	;# 
  1539  009B                     	;# 
  1540  009B                     	;# 
  1541  009C                     	;# 
  1542  009D                     	;# 
  1543  009E                     	;# 
  1544  009F                     	;# 
  1545  010C                     	;# 
  1546  010E                     	;# 
  1547  0111                     	;# 
  1548  0112                     	;# 
  1549  0113                     	;# 
  1550  0114                     	;# 
  1551  0115                     	;# 
  1552  0116                     	;# 
  1553  0117                     	;# 
  1554  0118                     	;# 
  1555  0119                     	;# 
  1556  011D                     	;# 
  1557  018C                     	;# 
  1558  018E                     	;# 
  1559  0191                     	;# 
  1560  0191                     	;# 
  1561  0192                     	;# 
  1562  0193                     	;# 
  1563  0193                     	;# 
  1564  0194                     	;# 
  1565  0195                     	;# 
  1566  0196                     	;# 
  1567  0197                     	;# 
  1568  020C                     	;# 
  1569  0211                     	;# 
  1570  0211                     	;# 
  1571  0212                     	;# 
  1572  0212                     	;# 
  1573  0213                     	;# 
  1574  0213                     	;# 
  1575  0214                     	;# 
  1576  0214                     	;# 
  1577  0215                     	;# 
  1578  0215                     	;# 
  1579  0215                     	;# 
  1580  0216                     	;# 
  1581  0216                     	;# 
  1582  0217                     	;# 
  1583  0217                     	;# 
  1584  0391                     	;# 
  1585  0392                     	;# 
  1586  0393                     	;# 
  1587  0498                     	;# 
  1588  0498                     	;# 
  1589  0499                     	;# 
  1590  049A                     	;# 
  1591  049B                     	;# 
  1592  049B                     	;# 
  1593  049C                     	;# 
  1594  049D                     	;# 
  1595  049E                     	;# 
  1596  049F                     	;# 
  1597  0611                     	;# 
  1598  0612                     	;# 
  1599  0613                     	;# 
  1600  0613                     	;# 
  1601  0614                     	;# 
  1602  0615                     	;# 
  1603  0616                     	;# 
  1604  0616                     	;# 
  1605  0617                     	;# 
  1606  0618                     	;# 
  1607  0619                     	;# 
  1608  0619                     	;# 
  1609  061A                     	;# 
  1610  061B                     	;# 
  1611  061C                     	;# 
  1612  061C                     	;# 
  1613  0691                     	;# 
  1614  0692                     	;# 
  1615  0693                     	;# 
  1616  0694                     	;# 
  1617  0695                     	;# 
  1618  0F0F                     	;# 
  1619  0F10                     	;# 
  1620  0F11                     	;# 
  1621  0F12                     	;# 
  1622  0F13                     	;# 
  1623  0F14                     	;# 
  1624  0F15                     	;# 
  1625  0F16                     	;# 
  1626  0F17                     	;# 
  1627  0F18                     	;# 
  1628  0F19                     	;# 
  1629  0F1A                     	;# 
  1630  0F1B                     	;# 
  1631  0F1C                     	;# 
  1632  0F1D                     	;# 
  1633  0F1E                     	;# 
  1634  0F1F                     	;# 
  1635  0FE3                     	;# 
  1636  0FE4                     	;# 
  1637  0FE5                     	;# 
  1638  0FE6                     	;# 
  1639  0FE7                     	;# 
  1640  0FE8                     	;# 
  1641  0FE9                     	;# 
  1642  0FEA                     	;# 
  1643  0FEB                     	;# 
  1644  0FED                     	;# 
  1645  0FEE                     	;# 
  1646  0FEF                     	;# 
  1647  0000                     	;# 
  1648  0001                     	;# 
  1649  0002                     	;# 
  1650  0003                     	;# 
  1651  0004                     	;# 
  1652  0005                     	;# 
  1653  0006                     	;# 
  1654  0007                     	;# 
  1655  0008                     	;# 
  1656  0009                     	;# 
  1657  000A                     	;# 
  1658  000B                     	;# 
  1659  000C                     	;# 
  1660  000E                     	;# 
  1661  0011                     	;# 
  1662  0012                     	;# 
  1663  0013                     	;# 
  1664  0015                     	;# 
  1665  0016                     	;# 
  1666  0016                     	;# 
  1667  0017                     	;# 
  1668  0018                     	;# 
  1669  0019                     	;# 
  1670  001A                     	;# 
  1671  001B                     	;# 
  1672  001C                     	;# 
  1673  008C                     	;# 
  1674  008E                     	;# 
  1675  0091                     	;# 
  1676  0092                     	;# 
  1677  0093                     	;# 
  1678  0095                     	;# 
  1679  0096                     	;# 
  1680  0097                     	;# 
  1681  0099                     	;# 
  1682  009A                     	;# 
  1683  009B                     	;# 
  1684  009B                     	;# 
  1685  009C                     	;# 
  1686  009D                     	;# 
  1687  009E                     	;# 
  1688  009F                     	;# 
  1689  010C                     	;# 
  1690  010E                     	;# 
  1691  0111                     	;# 
  1692  0112                     	;# 
  1693  0113                     	;# 
  1694  0114                     	;# 
  1695  0115                     	;# 
  1696  0116                     	;# 
  1697  0117                     	;# 
  1698  0118                     	;# 
  1699  0119                     	;# 
  1700  011D                     	;# 
  1701  018C                     	;# 
  1702  018E                     	;# 
  1703  0191                     	;# 
  1704  0191                     	;# 
  1705  0192                     	;# 
  1706  0193                     	;# 
  1707  0193                     	;# 
  1708  0194                     	;# 
  1709  0195                     	;# 
  1710  0196                     	;# 
  1711  0197                     	;# 
  1712  020C                     	;# 
  1713  0211                     	;# 
  1714  0211                     	;# 
  1715  0212                     	;# 
  1716  0212                     	;# 
  1717  0213                     	;# 
  1718  0213                     	;# 
  1719  0214                     	;# 
  1720  0214                     	;# 
  1721  0215                     	;# 
  1722  0215                     	;# 
  1723  0215                     	;# 
  1724  0216                     	;# 
  1725  0216                     	;# 
  1726  0217                     	;# 
  1727  0217                     	;# 
  1728  0391                     	;# 
  1729  0392                     	;# 
  1730  0393                     	;# 
  1731  0498                     	;# 
  1732  0498                     	;# 
  1733  0499                     	;# 
  1734  049A                     	;# 
  1735  049B                     	;# 
  1736  049B                     	;# 
  1737  049C                     	;# 
  1738  049D                     	;# 
  1739  049E                     	;# 
  1740  049F                     	;# 
  1741  0611                     	;# 
  1742  0612                     	;# 
  1743  0613                     	;# 
  1744  0613                     	;# 
  1745  0614                     	;# 
  1746  0615                     	;# 
  1747  0616                     	;# 
  1748  0616                     	;# 
  1749  0617                     	;# 
  1750  0618                     	;# 
  1751  0619                     	;# 
  1752  0619                     	;# 
  1753  061A                     	;# 
  1754  061B                     	;# 
  1755  061C                     	;# 
  1756  061C                     	;# 
  1757  0691                     	;# 
  1758  0692                     	;# 
  1759  0693                     	;# 
  1760  0694                     	;# 
  1761  0695                     	;# 
  1762  0F0F                     	;# 
  1763  0F10                     	;# 
  1764  0F11                     	;# 
  1765  0F12                     	;# 
  1766  0F13                     	;# 
  1767  0F14                     	;# 
  1768  0F15                     	;# 
  1769  0F16                     	;# 
  1770  0F17                     	;# 
  1771  0F18                     	;# 
  1772  0F19                     	;# 
  1773  0F1A                     	;# 
  1774  0F1B                     	;# 
  1775  0F1C                     	;# 
  1776  0F1D                     	;# 
  1777  0F1E                     	;# 
  1778  0F1F                     	;# 
  1779  0FE3                     	;# 
  1780  0FE4                     	;# 
  1781  0FE5                     	;# 
  1782  0FE6                     	;# 
  1783  0FE7                     	;# 
  1784  0FE8                     	;# 
  1785  0FE9                     	;# 
  1786  0FEA                     	;# 
  1787  0FEB                     	;# 
  1788  0FED                     	;# 
  1789  0FEE                     	;# 
  1790  0FEF                     	;# 
  1791                           
  1792 ;; Function _TMR0_DefaultInterruptHandler is unused but had its address taken
  1793  0000                     
  1794 ;; Function _TMR1_DefaultInterruptHandler is unused but had its address taken
  1795  0000                     
  1796                           	psect	nvCOMMON
  1797  0070                     __pnvCOMMON:	
  1798  0070                     _TMR1_InterruptHandler:	
  1799  0070                     	ds	2
  1800  0072                     _timer1ReloadVal:	
  1801  0072                     	ds	2
  1802  0074                     _TMR0_InterruptHandler:	
  1803  0074                     	ds	2
  1804  0076                     _INT_InterruptHandler:	
  1805  0076                     	ds	2
  1806  0078                     _timer0ReloadVal:	
  1807  0078                     	ds	1
  1808  000E                     _PORTCbits	set	14
  1809  0019                     _T1GCONbits	set	25
  1810  0018                     _T1CONbits	set	24
  1811  0018                     _T1CON	set	24
  1812  0016                     _TMR1L	set	22
  1813  0017                     _TMR1H	set	23
  1814  0019                     _T1GCON	set	25
  1815  0015                     _TMR0	set	21
  1816  000B                     _INTCONbits	set	11
  1817  0012                     _PIR2bits	set	18
  1818  0011                     _PIR1bits	set	17
  1819  0095                     _OPTION_REG	set	149
  1820  008E                     _TRISC	set	142
  1821  008C                     _TRISA	set	140
  1822  0097                     _WDTCON	set	151
  1823  0099                     _OSCCON	set	153
  1824  0095                     _OPTION_REGbits	set	149
  1825  0092                     _PIE2bits	set	146
  1826  009D                     _ADCON0bits	set	157
  1827  0091                     _PIE1bits	set	145
  1828  009C                     _ADRESH	set	156
  1829  009B                     _ADRESL	set	155
  1830  009F                     _ADCON2	set	159
  1831  009E                     _ADCON1	set	158
  1832  009D                     _ADCON0	set	157
  1833  011D                     _APFCON	set	285
  1834  010E                     _LATC	set	270
  1835  010C                     _LATA	set	268
  1836  0116                     _BORCON	set	278
  1837  0119                     _DACCON1	set	281
  1838  0118                     _DACCON0	set	280
  1839  0115                     _CMOUTbits	set	277
  1840  0112                     _CM1CON1	set	274
  1841  0111                     _CM1CON0	set	273
  1842  018C                     _ANSELA	set	396
  1843  018E                     _ANSELC	set	398
  1844  020C                     _WPUA	set	524
  1845  0611                     _PWM1DCL	set	1553
  1846  0612                     _PWM1DCH	set	1554
  1847  0613                     _PWM1CON	set	1555
  1848                           
  1849                           ; #config settings
  1850  0000                     
  1851                           	psect	cinit
  1852  001D                     start_initialization:	
  1853  001D                     __initialization:	
  1854  001D                     end_of_initialization:	
  1855                           ;End of C runtime variable initialization code
  1856                           
  1857  001D                     __end_of__initialization:	
  1858  001D  107E               	bcf	int$flags,0	;clear compiler interrupt flag (level 1)
  1859  001E  0020               	movlb	0
  1860  001F  289C               	ljmp	_main	;jump to C main() function
  1861                           
  1862                           	psect	cstackCOMMON
  1863  0079                     __pcstackCOMMON:	
  1864  0079                     ?_INT_CallBack:	
  1865  0079                     ??_INT_CallBack:	
  1866                           ; 1 bytes @ 0x0
  1867                           
  1868  0079                     ?_PIN_MANAGER_Initialize:	
  1869                           ; 1 bytes @ 0x0
  1870                           
  1871  0079                     ?_OSCILLATOR_Initialize:	
  1872                           ; 1 bytes @ 0x0
  1873                           
  1874  0079                     ?_WDT_Initialize:	
  1875                           ; 1 bytes @ 0x0
  1876                           
  1877  0079                     ?_TMR1_Initialize:	
  1878                           ; 1 bytes @ 0x0
  1879                           
  1880  0079                     ?_TMR0_Initialize:	
  1881                           ; 1 bytes @ 0x0
  1882                           
  1883  0079                     ?_ADC_Initialize:	
  1884                           ; 1 bytes @ 0x0
  1885                           
  1886  0079                     ?_ADC_ISR:	
  1887                           ; 1 bytes @ 0x0
  1888                           
  1889  0079                     ??_ADC_ISR:	
  1890                           ; 1 bytes @ 0x0
  1891                           
  1892  0079                     ?_INT_ISR:	
  1893                           ; 1 bytes @ 0x0
  1894                           
  1895  0079                     ??_INT_ISR:	
  1896                           ; 1 bytes @ 0x0
  1897                           
  1898  0079                     ?_INT_DefaultInterruptHandler:	
  1899                           ; 1 bytes @ 0x0
  1900                           
  1901  0079                     ??_INT_DefaultInterruptHandler:	
  1902                           ; 1 bytes @ 0x0
  1903                           
  1904  0079                     ?_EXT_INT_Initialize:	
  1905                           ; 1 bytes @ 0x0
  1906                           
  1907  0079                     ?_INTERRUPT_InterruptManager:	
  1908                           ; 1 bytes @ 0x0
  1909                           
  1910  0079                     ??_INTERRUPT_InterruptManager:	
  1911                           ; 1 bytes @ 0x0
  1912                           
  1913  0079                     ?_SYSTEM_Initialize:	
  1914                           ; 1 bytes @ 0x0
  1915                           
  1916  0079                     ?_TMR1_StartTimer:	
  1917                           ; 1 bytes @ 0x0
  1918                           
  1919  0079                     ?_main:	
  1920                           ; 1 bytes @ 0x0
  1921                           
  1922  0079                     ?_isDeviceConnected:	
  1923                           ; 1 bytes @ 0x0
  1924                           
  1925  0079                     ?_sendbit:	
  1926                           ; 1 bytes @ 0x0
  1927                           
  1928                           
  1929                           ; 2 bytes @ 0x0
  1930  0079                     	ds	1
  1931  007A                     ??_PIN_MANAGER_Initialize:	
  1932  007A                     ??_OSCILLATOR_Initialize:	
  1933                           ; 1 bytes @ 0x1
  1934                           
  1935  007A                     ??_WDT_Initialize:	
  1936                           ; 1 bytes @ 0x1
  1937                           
  1938  007A                     ?_TMR0_SetInterruptHandler:	
  1939                           ; 1 bytes @ 0x1
  1940                           
  1941  007A                     ?_TMR1_SetInterruptHandler:	
  1942                           ; 1 bytes @ 0x1
  1943                           
  1944  007A                     ??_sendbit:	
  1945                           ; 1 bytes @ 0x1
  1946                           
  1947  007A                     ??_ADC_Initialize:	
  1948                           ; 1 bytes @ 0x1
  1949                           
  1950  007A                     ?_INT_SetInterruptHandler:	
  1951                           ; 1 bytes @ 0x1
  1952                           
  1953  007A                     ??_TMR1_StartTimer:	
  1954                           ; 1 bytes @ 0x1
  1955                           
  1956  007A                     ??_isDeviceConnected:	
  1957                           ; 1 bytes @ 0x1
  1958                           
  1959  007A                     INT_SetInterruptHandler@InterruptHandler:	
  1960                           ; 1 bytes @ 0x1
  1961                           
  1962  007A                     TMR0_SetInterruptHandler@InterruptHandler:	
  1963                           ; 2 bytes @ 0x1
  1964                           
  1965  007A                     TMR1_SetInterruptHandler@InterruptHandler:	
  1966                           ; 2 bytes @ 0x1
  1967                           
  1968                           
  1969                           ; 2 bytes @ 0x1
  1970  007A                     	ds	2
  1971  007C                     ??_TMR1_Initialize:	
  1972  007C                     ??_TMR0_Initialize:	
  1973                           ; 1 bytes @ 0x3
  1974                           
  1975  007C                     ??_TMR0_SetInterruptHandler:	
  1976                           ; 1 bytes @ 0x3
  1977                           
  1978  007C                     ??_TMR1_SetInterruptHandler:	
  1979                           ; 1 bytes @ 0x3
  1980                           
  1981  007C                     ??_INT_SetInterruptHandler:	
  1982                           ; 1 bytes @ 0x3
  1983                           
  1984  007C                     ??_EXT_INT_Initialize:	
  1985                           ; 1 bytes @ 0x3
  1986                           
  1987                           
  1988                           ; 1 bytes @ 0x3
  1989  007C                     	ds	1
  1990  007D                     ??_SYSTEM_Initialize:	
  1991  007D                     ??_main:	
  1992                           ; 1 bytes @ 0x4
  1993                           
  1994                           
  1995                           	psect	maintext
  1996  009C                     __pmaintext:	
  1997                           ; 1 bytes @ 0x4
  1998 ;;
  1999 ;;Main: autosize = 0, tempsize = 0, incstack = 0, save=0
  2000 ;;
  2001 ;; *************** function _main *****************
  2002 ;; Defined at:
  2003 ;;		line 49 in file "main.c"
  2004 ;; Parameters:    Size  Location     Type
  2005 ;;		None
  2006 ;; Auto vars:     Size  Location     Type
  2007 ;;		None
  2008 ;; Return value:  Size  Location     Type
  2009 ;;                  1    wreg      void 
  2010 ;; Registers used:
  2011 ;;		wreg, status,2, status,0, pclath, cstack
  2012 ;; Tracked objects:
  2013 ;;		On entry : B1F/0
  2014 ;;		On exit  : 0/0
  2015 ;;		Unchanged: 0/0
  2016 ;; Data sizes:     COMMON   BANK0   BANK1
  2017 ;;      Params:         0       0       0
  2018 ;;      Locals:         0       0       0
  2019 ;;      Temps:          0       0       0
  2020 ;;      Totals:         0       0       0
  2021 ;;Total ram usage:        0 bytes
  2022 ;; Hardware stack levels required when called:    7
  2023 ;; This function calls:
  2024 ;;		_SYSTEM_Initialize
  2025 ;;		_sendbit
  2026 ;; This function is called by:
  2027 ;;		Startup code after reset
  2028 ;; This function uses a non-reentrant model
  2029 ;;
  2030                           
  2031                           
  2032                           ;psect for function _main
  2033  009C                     _main:	
  2034                           
  2035                           ;main.c: 52: SYSTEM_Initialize();
  2036                           
  2037                           ;incstack = 0
  2038                           ; Regs used in _main: [wreg+status,2+status,0+pclath+cstack]
  2039  009C  208E               	fcall	_SYSTEM_Initialize
  2040                           
  2041                           ;main.c: 54: INTCONbits. GIE=1;
  2042  009D  178B               	bsf	11,7	;volatile
  2043                           
  2044                           ;main.c: 55: INTCONbits. PEIE=1;
  2045  009E  170B               	bsf	11,6	;volatile
  2046  009F                     l292:	
  2047                           ;main.c: 58: while (1)
  2048                           
  2049                           
  2050                           ;main.c: 59: {
  2051                           ;main.c: 60: sendbit();
  2052  009F  205E               	fcall	_sendbit
  2053  00A0  289F               	goto	l292
  2054  00A1                     __end_of_main:	
  2055                           
  2056                           	psect	text1
  2057  005E                     __ptext1:	
  2058 ;; *************** function _sendbit *****************
  2059 ;; Defined at:
  2060 ;;		line 14 in file "sendonebit.c"
  2061 ;; Parameters:    Size  Location     Type
  2062 ;;		None
  2063 ;; Auto vars:     Size  Location     Type
  2064 ;;		None
  2065 ;; Return value:  Size  Location     Type
  2066 ;;                  2  289[None  ] int 
  2067 ;; Registers used:
  2068 ;;		wreg, status,2, status,0, pclath, cstack
  2069 ;; Tracked objects:
  2070 ;;		On entry : 0/0
  2071 ;;		On exit  : 0/0
  2072 ;;		Unchanged: 0/0
  2073 ;; Data sizes:     COMMON   BANK0   BANK1
  2074 ;;      Params:         0       0       0
  2075 ;;      Locals:         0       0       0
  2076 ;;      Temps:          0       0       0
  2077 ;;      Totals:         0       0       0
  2078 ;;Total ram usage:        0 bytes
  2079 ;; Hardware stack levels used:    1
  2080 ;; Hardware stack levels required when called:    5
  2081 ;; This function calls:
  2082 ;;		_TMR1_StartTimer
  2083 ;;		_isDeviceConnected
  2084 ;; This function is called by:
  2085 ;;		_main
  2086 ;; This function uses a non-reentrant model
  2087 ;;
  2088                           
  2089                           
  2090                           ;psect for function _sendbit
  2091  005E                     _sendbit:	
  2092                           
  2093                           ;sendonebit.c: 16: TMR1_StartTimer();
  2094                           
  2095                           ;incstack = 0
  2096                           ; Regs used in _sendbit: [wreg+status,2+status,0+pclath+cstack]
  2097  005E  20B4               	fcall	_TMR1_StartTimer
  2098  005F                     L2:	
  2099                           
  2100                           ;sendonebit.c: 17: PORTCbits.RC1 = 0;
  2101  005F  0020               	movlb	0	; select bank0
  2102  0060  108E               	bcf	14,1	;volatile
  2103  0061                     l307:	
  2104                           ;sendonebit.c: 19: while(PIR1bits.TMR1IF == 0)
  2105                           
  2106  0061  1811               	btfsc	17,0	;volatile
  2107  0062  286D               	goto	l806
  2108                           
  2109                           ;sendonebit.c: 20: {
  2110                           ;sendonebit.c: 21: if (isDeviceConnected())
  2111  0063  20BD               	fcall	_isDeviceConnected
  2112  0064  3A00               	xorlw	0
  2113  0065  1D03               	btfss	3,2
  2114  0066  286A               	goto	L1
  2115                           
  2116                           ;sendonebit.c: 25: else
  2117                           ;sendonebit.c: 26: {
  2118                           ;sendonebit.c: 27: PORTCbits.RC1 = PORTCbits.RC1;
  2119                           
  2120                           ;sendonebit.c: 24: }
  2121                           
  2122                           ;sendonebit.c: 22: {
  2123                           ;sendonebit.c: 23: PORTCbits.RC1 = 1;
  2124  0067  0020               	movlb	0	; select bank0
  2125  0068  1C8E               	btfss	14,1	;volatile
  2126  0069  285F               	goto	L2
  2127  006A                     L1:	
  2128  006A  0020               	movlb	0	; select bank0
  2129  006B  148E               	bsf	14,1	;volatile
  2130  006C  2861               	goto	l307
  2131  006D                     l806:	
  2132                           
  2133                           ;sendonebit.c: 28: }
  2134                           ;sendonebit.c: 29: }
  2135                           ;sendonebit.c: 30: return PORTCbits.RC1;
  2136                           ;	Return value of _sendbit is never used
  2137  006D  080E               	movf	14,w	;volatile
  2138  006E  0008               	return
  2139  006F                     __end_of_sendbit:	
  2140                           
  2141                           	psect	text2
  2142  00BD                     __ptext2:	
  2143 ;; *************** function _isDeviceConnected *****************
  2144 ;; Defined at:
  2145 ;;		line 9 in file "sendonebit.c"
  2146 ;; Parameters:    Size  Location     Type
  2147 ;;		None
  2148 ;; Auto vars:     Size  Location     Type
  2149 ;;		None
  2150 ;; Return value:  Size  Location     Type
  2151 ;;                  1    wreg      unsigned char 
  2152 ;; Registers used:
  2153 ;;		wreg
  2154 ;; Tracked objects:
  2155 ;;		On entry : 0/0
  2156 ;;		On exit  : 0/0
  2157 ;;		Unchanged: 0/0
  2158 ;; Data sizes:     COMMON   BANK0   BANK1
  2159 ;;      Params:         0       0       0
  2160 ;;      Locals:         0       0       0
  2161 ;;      Temps:          0       0       0
  2162 ;;      Totals:         0       0       0
  2163 ;;Total ram usage:        0 bytes
  2164 ;; Hardware stack levels used:    1
  2165 ;; Hardware stack levels required when called:    4
  2166 ;; This function calls:
  2167 ;;		Nothing
  2168 ;; This function is called by:
  2169 ;;		_sendbit
  2170 ;; This function uses a non-reentrant model
  2171 ;;
  2172                           
  2173                           
  2174                           ;psect for function _isDeviceConnected
  2175  00BD                     _isDeviceConnected:	
  2176                           
  2177                           ;sendonebit.c: 11: return 1;
  2178                           
  2179                           ;incstack = 0
  2180                           ; Regs used in _isDeviceConnected: [wreg]
  2181  00BD  3001               	movlw	1
  2182  00BE  0008               	return
  2183  00BF                     __end_of_isDeviceConnected:	
  2184                           
  2185                           	psect	text3
  2186  00B4                     __ptext3:	
  2187 ;; *************** function _TMR1_StartTimer *****************
  2188 ;; Defined at:
  2189 ;;		line 93 in file "mcc_generated_files/tmr1.c"
  2190 ;; Parameters:    Size  Location     Type
  2191 ;;		None
  2192 ;; Auto vars:     Size  Location     Type
  2193 ;;		None
  2194 ;; Return value:  Size  Location     Type
  2195 ;;                  1    wreg      void 
  2196 ;; Registers used:
  2197 ;;		None
  2198 ;; Tracked objects:
  2199 ;;		On entry : 0/0
  2200 ;;		On exit  : 0/0
  2201 ;;		Unchanged: 0/0
  2202 ;; Data sizes:     COMMON   BANK0   BANK1
  2203 ;;      Params:         0       0       0
  2204 ;;      Locals:         0       0       0
  2205 ;;      Temps:          0       0       0
  2206 ;;      Totals:         0       0       0
  2207 ;;Total ram usage:        0 bytes
  2208 ;; Hardware stack levels used:    1
  2209 ;; Hardware stack levels required when called:    4
  2210 ;; This function calls:
  2211 ;;		Nothing
  2212 ;; This function is called by:
  2213 ;;		_sendbit
  2214 ;; This function uses a non-reentrant model
  2215 ;;
  2216                           
  2217                           
  2218                           ;psect for function _TMR1_StartTimer
  2219  00B4                     _TMR1_StartTimer:	
  2220                           
  2221                           ;tmr1.c: 96: T1CONbits.TMR1ON = 1;
  2222                           
  2223                           ;incstack = 0
  2224                           ; Regs used in _TMR1_StartTimer: []
  2225  00B4  0020               	movlb	0	; select bank0
  2226  00B5  1418               	bsf	24,0	;volatile
  2227  00B6  0008               	return
  2228  00B7                     __end_of_TMR1_StartTimer:	
  2229                           
  2230                           	psect	text4
  2231  008E                     __ptext4:	
  2232 ;; *************** function _SYSTEM_Initialize *****************
  2233 ;; Defined at:
  2234 ;;		line 50 in file "mcc_generated_files/mcc.c"
  2235 ;; Parameters:    Size  Location     Type
  2236 ;;		None
  2237 ;; Auto vars:     Size  Location     Type
  2238 ;;		None
  2239 ;; Return value:  Size  Location     Type
  2240 ;;                  1    wreg      void 
  2241 ;; Registers used:
  2242 ;;		wreg, status,2, status,0, pclath, cstack
  2243 ;; Tracked objects:
  2244 ;;		On entry : 0/0
  2245 ;;		On exit  : 0/0
  2246 ;;		Unchanged: 0/0
  2247 ;; Data sizes:     COMMON   BANK0   BANK1
  2248 ;;      Params:         0       0       0
  2249 ;;      Locals:         0       0       0
  2250 ;;      Temps:          0       0       0
  2251 ;;      Totals:         0       0       0
  2252 ;;Total ram usage:        0 bytes
  2253 ;; Hardware stack levels used:    1
  2254 ;; Hardware stack levels required when called:    6
  2255 ;; This function calls:
  2256 ;;		_ADC_Initialize
  2257 ;;		_EXT_INT_Initialize
  2258 ;;		_OSCILLATOR_Initialize
  2259 ;;		_PIN_MANAGER_Initialize
  2260 ;;		_TMR0_Initialize
  2261 ;;		_TMR1_Initialize
  2262 ;;		_WDT_Initialize
  2263 ;; This function is called by:
  2264 ;;		_main
  2265 ;; This function uses a non-reentrant model
  2266 ;;
  2267                           
  2268                           
  2269                           ;psect for function _SYSTEM_Initialize
  2270  008E                     _SYSTEM_Initialize:	
  2271                           
  2272                           ;mcc.c: 53: PIN_MANAGER_Initialize();
  2273                           
  2274                           ;incstack = 0
  2275                           ; Regs used in _SYSTEM_Initialize: [wreg+status,2+status,0+pclath+cstack]
  2276  008E  2020               	fcall	_PIN_MANAGER_Initialize
  2277                           
  2278                           ;mcc.c: 54: OSCILLATOR_Initialize();
  2279  008F  2096               	fcall	_OSCILLATOR_Initialize
  2280                           
  2281                           ;mcc.c: 55: WDT_Initialize();
  2282  0090  20B0               	fcall	_WDT_Initialize
  2283                           
  2284                           ;mcc.c: 56: ADC_Initialize();
  2285  0091  206F               	fcall	_ADC_Initialize
  2286                           
  2287                           ;mcc.c: 57: TMR1_Initialize();
  2288  0092  2036               	fcall	_TMR1_Initialize
  2289                           
  2290                           ;mcc.c: 58: EXT_INT_Initialize();
  2291  0093  207A               	fcall	_EXT_INT_Initialize
  2292                           
  2293                           ;mcc.c: 59: TMR0_Initialize();
  2294  0094  204A               	fcall	_TMR0_Initialize
  2295  0095  0008               	return
  2296  0096                     __end_of_SYSTEM_Initialize:	
  2297                           
  2298                           	psect	text5
  2299  00B0                     __ptext5:	
  2300 ;; *************** function _WDT_Initialize *****************
  2301 ;; Defined at:
  2302 ;;		line 70 in file "mcc_generated_files/mcc.c"
  2303 ;; Parameters:    Size  Location     Type
  2304 ;;		None
  2305 ;; Auto vars:     Size  Location     Type
  2306 ;;		None
  2307 ;; Return value:  Size  Location     Type
  2308 ;;                  1    wreg      void 
  2309 ;; Registers used:
  2310 ;;		wreg
  2311 ;; Tracked objects:
  2312 ;;		On entry : 0/0
  2313 ;;		On exit  : 0/0
  2314 ;;		Unchanged: 0/0
  2315 ;; Data sizes:     COMMON   BANK0   BANK1
  2316 ;;      Params:         0       0       0
  2317 ;;      Locals:         0       0       0
  2318 ;;      Temps:          0       0       0
  2319 ;;      Totals:         0       0       0
  2320 ;;Total ram usage:        0 bytes
  2321 ;; Hardware stack levels used:    1
  2322 ;; Hardware stack levels required when called:    4
  2323 ;; This function calls:
  2324 ;;		Nothing
  2325 ;; This function is called by:
  2326 ;;		_SYSTEM_Initialize
  2327 ;; This function uses a non-reentrant model
  2328 ;;
  2329                           
  2330                           
  2331                           ;psect for function _WDT_Initialize
  2332  00B0                     _WDT_Initialize:	
  2333                           
  2334                           ;mcc.c: 73: WDTCON = 0x16;
  2335                           
  2336                           ;incstack = 0
  2337                           ; Regs used in _WDT_Initialize: [wreg]
  2338  00B0  3016               	movlw	22
  2339  00B1  0021               	movlb	1	; select bank1
  2340  00B2  0097               	movwf	23	;volatile
  2341  00B3  0008               	return
  2342  00B4                     __end_of_WDT_Initialize:	
  2343                           
  2344                           	psect	text6
  2345  0036                     __ptext6:	
  2346 ;; *************** function _TMR1_Initialize *****************
  2347 ;; Defined at:
  2348 ;;		line 64 in file "mcc_generated_files/tmr1.c"
  2349 ;; Parameters:    Size  Location     Type
  2350 ;;		None
  2351 ;; Auto vars:     Size  Location     Type
  2352 ;;		None
  2353 ;; Return value:  Size  Location     Type
  2354 ;;                  1    wreg      void 
  2355 ;; Registers used:
  2356 ;;		wreg, status,2, status,0, pclath, cstack
  2357 ;; Tracked objects:
  2358 ;;		On entry : 0/0
  2359 ;;		On exit  : 0/0
  2360 ;;		Unchanged: 0/0
  2361 ;; Data sizes:     COMMON   BANK0   BANK1
  2362 ;;      Params:         0       0       0
  2363 ;;      Locals:         0       0       0
  2364 ;;      Temps:          0       0       0
  2365 ;;      Totals:         0       0       0
  2366 ;;Total ram usage:        0 bytes
  2367 ;; Hardware stack levels used:    1
  2368 ;; Hardware stack levels required when called:    5
  2369 ;; This function calls:
  2370 ;;		_TMR1_SetInterruptHandler
  2371 ;; This function is called by:
  2372 ;;		_SYSTEM_Initialize
  2373 ;; This function uses a non-reentrant model
  2374 ;;
  2375                           
  2376                           
  2377                           ;psect for function _TMR1_Initialize
  2378  0036                     _TMR1_Initialize:	
  2379                           
  2380                           ;tmr1.c: 69: T1GCON = 0x00;
  2381                           
  2382                           ;incstack = 0
  2383                           ; Regs used in _TMR1_Initialize: [wreg+status,2+status,0+pclath+cstack]
  2384  0036  0020               	movlb	0	; select bank0
  2385  0037  0199               	clrf	25	;volatile
  2386                           
  2387                           ;tmr1.c: 72: TMR1H = 0x00;
  2388  0038  0197               	clrf	23	;volatile
  2389                           
  2390                           ;tmr1.c: 75: TMR1L = 0x00;
  2391  0039  0196               	clrf	22	;volatile
  2392                           
  2393                           ;tmr1.c: 78: timer1ReloadVal=(uint16_t)((TMR1H << 8) | TMR1L);
  2394  003A  0817               	movf	23,w	;volatile
  2395  003B  00F3               	movwf	_timer1ReloadVal+1	;volatile
  2396  003C  0816               	movf	22,w	;volatile
  2397  003D  00F2               	movwf	_timer1ReloadVal	;volatile
  2398                           
  2399                           ;tmr1.c: 81: PIR1bits.TMR1IF = 0;
  2400  003E  1011               	bcf	17,0	;volatile
  2401                           
  2402                           ;tmr1.c: 84: PIE1bits.TMR1IE = 1;
  2403  003F  0021               	movlb	1	; select bank1
  2404  0040  1411               	bsf	17,0	;volatile
  2405                           
  2406                           ;tmr1.c: 87: TMR1_SetInterruptHandler(TMR1_DefaultInterruptHandler);
  2407  0041  3000               	movlw	0
  2408  0042  00FA               	movwf	TMR1_SetInterruptHandler@InterruptHandler
  2409  0043  3000               	movlw	0
  2410  0044  00FB               	movwf	TMR1_SetInterruptHandler@InterruptHandler+1
  2411  0045  20A1               	fcall	_TMR1_SetInterruptHandler
  2412                           
  2413                           ;tmr1.c: 90: T1CON = 0x01;
  2414  0046  3001               	movlw	1
  2415  0047  0020               	movlb	0	; select bank0
  2416  0048  0098               	movwf	24	;volatile
  2417  0049  0008               	return
  2418  004A                     __end_of_TMR1_Initialize:	
  2419                           
  2420                           	psect	text7
  2421  00A1                     __ptext7:	
  2422 ;; *************** function _TMR1_SetInterruptHandler *****************
  2423 ;; Defined at:
  2424 ;;		line 171 in file "mcc_generated_files/tmr1.c"
  2425 ;; Parameters:    Size  Location     Type
  2426 ;;  InterruptHan    2    1[COMMON] PTR FTN()void 
  2427 ;;		 -> TMR1_DefaultInterruptHandler(1), 
  2428 ;; Auto vars:     Size  Location     Type
  2429 ;;		None
  2430 ;; Return value:  Size  Location     Type
  2431 ;;                  1    wreg      void 
  2432 ;; Registers used:
  2433 ;;		wreg
  2434 ;; Tracked objects:
  2435 ;;		On entry : 0/0
  2436 ;;		On exit  : 0/0
  2437 ;;		Unchanged: 0/0
  2438 ;; Data sizes:     COMMON   BANK0   BANK1
  2439 ;;      Params:         2       0       0
  2440 ;;      Locals:         0       0       0
  2441 ;;      Temps:          0       0       0
  2442 ;;      Totals:         2       0       0
  2443 ;;Total ram usage:        2 bytes
  2444 ;; Hardware stack levels used:    1
  2445 ;; Hardware stack levels required when called:    4
  2446 ;; This function calls:
  2447 ;;		Nothing
  2448 ;; This function is called by:
  2449 ;;		_TMR1_Initialize
  2450 ;; This function uses a non-reentrant model
  2451 ;;
  2452                           
  2453                           
  2454                           ;psect for function _TMR1_SetInterruptHandler
  2455  00A1                     _TMR1_SetInterruptHandler:	
  2456                           
  2457                           ;tmr1.c: 172: TMR1_InterruptHandler = InterruptHandler;
  2458                           
  2459                           ;incstack = 0
  2460                           ; Regs used in _TMR1_SetInterruptHandler: [wreg]
  2461  00A1  087B               	movf	TMR1_SetInterruptHandler@InterruptHandler+1,w
  2462  00A2  00F1               	movwf	_TMR1_InterruptHandler+1
  2463  00A3  087A               	movf	TMR1_SetInterruptHandler@InterruptHandler,w
  2464  00A4  00F0               	movwf	_TMR1_InterruptHandler
  2465  00A5  0008               	return
  2466  00A6                     __end_of_TMR1_SetInterruptHandler:	
  2467                           
  2468                           	psect	text8
  2469  004A                     __ptext8:	
  2470 ;; *************** function _TMR0_Initialize *****************
  2471 ;; Defined at:
  2472 ;;		line 66 in file "mcc_generated_files/tmr0.c"
  2473 ;; Parameters:    Size  Location     Type
  2474 ;;		None
  2475 ;; Auto vars:     Size  Location     Type
  2476 ;;		None
  2477 ;; Return value:  Size  Location     Type
  2478 ;;                  1    wreg      void 
  2479 ;; Registers used:
  2480 ;;		wreg, status,2, status,0, pclath, cstack
  2481 ;; Tracked objects:
  2482 ;;		On entry : 0/0
  2483 ;;		On exit  : 0/0
  2484 ;;		Unchanged: 0/0
  2485 ;; Data sizes:     COMMON   BANK0   BANK1
  2486 ;;      Params:         0       0       0
  2487 ;;      Locals:         0       0       0
  2488 ;;      Temps:          1       0       0
  2489 ;;      Totals:         1       0       0
  2490 ;;Total ram usage:        1 bytes
  2491 ;; Hardware stack levels used:    1
  2492 ;; Hardware stack levels required when called:    5
  2493 ;; This function calls:
  2494 ;;		_TMR0_SetInterruptHandler
  2495 ;; This function is called by:
  2496 ;;		_SYSTEM_Initialize
  2497 ;; This function uses a non-reentrant model
  2498 ;;
  2499                           
  2500                           
  2501                           ;psect for function _TMR0_Initialize
  2502  004A                     _TMR0_Initialize:	
  2503                           
  2504                           ;tmr0.c: 71: OPTION_REG = (uint8_t)((OPTION_REG & 0xC0) | 0xFF & 0x3F);
  2505                           
  2506                           ;incstack = 0
  2507                           ; Regs used in _TMR0_Initialize: [wreg+status,2+status,0+pclath+cstack]
  2508  004A  0021               	movlb	1	; select bank1
  2509  004B  0815               	movf	21,w	;volatile
  2510  004C  39C0               	andlw	192
  2511  004D  383F               	iorlw	63
  2512  004E  0095               	movwf	21	;volatile
  2513                           
  2514                           ;tmr0.c: 74: TMR0 = 0x38;
  2515  004F  3038               	movlw	56
  2516  0050  0020               	movlb	0	; select bank0
  2517  0051  0095               	movwf	21	;volatile
  2518                           
  2519                           ;tmr0.c: 77: timer0ReloadVal= 56;
  2520  0052  3038               	movlw	56
  2521  0053  00FC               	movwf	??_TMR0_Initialize
  2522  0054  087C               	movf	??_TMR0_Initialize,w
  2523  0055  00F8               	movwf	_timer0ReloadVal	;volatile
  2524                           
  2525                           ;tmr0.c: 80: INTCONbits.TMR0IF = 0;
  2526  0056  110B               	bcf	11,2	;volatile
  2527                           
  2528                           ;tmr0.c: 83: INTCONbits.TMR0IE = 1;
  2529  0057  168B               	bsf	11,5	;volatile
  2530                           
  2531                           ;tmr0.c: 86: TMR0_SetInterruptHandler(TMR0_DefaultInterruptHandler);
  2532  0058  3000               	movlw	0
  2533  0059  00FA               	movwf	TMR0_SetInterruptHandler@InterruptHandler
  2534  005A  3000               	movlw	0
  2535  005B  00FB               	movwf	TMR0_SetInterruptHandler@InterruptHandler+1
  2536  005C  20A6               	fcall	_TMR0_SetInterruptHandler
  2537  005D  0008               	return
  2538  005E                     __end_of_TMR0_Initialize:	
  2539                           
  2540                           	psect	text9
  2541  00A6                     __ptext9:	
  2542 ;; *************** function _TMR0_SetInterruptHandler *****************
  2543 ;; Defined at:
  2544 ;;		line 126 in file "mcc_generated_files/tmr0.c"
  2545 ;; Parameters:    Size  Location     Type
  2546 ;;  InterruptHan    2    1[COMMON] PTR FTN()void 
  2547 ;;		 -> TMR0_DefaultInterruptHandler(1), 
  2548 ;; Auto vars:     Size  Location     Type
  2549 ;;		None
  2550 ;; Return value:  Size  Location     Type
  2551 ;;                  1    wreg      void 
  2552 ;; Registers used:
  2553 ;;		wreg
  2554 ;; Tracked objects:
  2555 ;;		On entry : 0/0
  2556 ;;		On exit  : 0/0
  2557 ;;		Unchanged: 0/0
  2558 ;; Data sizes:     COMMON   BANK0   BANK1
  2559 ;;      Params:         2       0       0
  2560 ;;      Locals:         0       0       0
  2561 ;;      Temps:          0       0       0
  2562 ;;      Totals:         2       0       0
  2563 ;;Total ram usage:        2 bytes
  2564 ;; Hardware stack levels used:    1
  2565 ;; Hardware stack levels required when called:    4
  2566 ;; This function calls:
  2567 ;;		Nothing
  2568 ;; This function is called by:
  2569 ;;		_TMR0_Initialize
  2570 ;; This function uses a non-reentrant model
  2571 ;;
  2572                           
  2573                           
  2574                           ;psect for function _TMR0_SetInterruptHandler
  2575  00A6                     _TMR0_SetInterruptHandler:	
  2576                           
  2577                           ;tmr0.c: 127: TMR0_InterruptHandler = InterruptHandler;
  2578                           
  2579                           ;incstack = 0
  2580                           ; Regs used in _TMR0_SetInterruptHandler: [wreg]
  2581  00A6  087B               	movf	TMR0_SetInterruptHandler@InterruptHandler+1,w
  2582  00A7  00F5               	movwf	_TMR0_InterruptHandler+1
  2583  00A8  087A               	movf	TMR0_SetInterruptHandler@InterruptHandler,w
  2584  00A9  00F4               	movwf	_TMR0_InterruptHandler
  2585  00AA  0008               	return
  2586  00AB                     __end_of_TMR0_SetInterruptHandler:	
  2587                           
  2588                           	psect	text10
  2589  0020                     __ptext10:	
  2590 ;; *************** function _PIN_MANAGER_Initialize *****************
  2591 ;; Defined at:
  2592 ;;		line 57 in file "mcc_generated_files/pin_manager.c"
  2593 ;; Parameters:    Size  Location     Type
  2594 ;;		None
  2595 ;; Auto vars:     Size  Location     Type
  2596 ;;		None
  2597 ;; Return value:  Size  Location     Type
  2598 ;;                  1    wreg      void 
  2599 ;; Registers used:
  2600 ;;		wreg, status,2
  2601 ;; Tracked objects:
  2602 ;;		On entry : 0/0
  2603 ;;		On exit  : 0/0
  2604 ;;		Unchanged: 0/0
  2605 ;; Data sizes:     COMMON   BANK0   BANK1
  2606 ;;      Params:         0       0       0
  2607 ;;      Locals:         0       0       0
  2608 ;;      Temps:          0       0       0
  2609 ;;      Totals:         0       0       0
  2610 ;;Total ram usage:        0 bytes
  2611 ;; Hardware stack levels used:    1
  2612 ;; Hardware stack levels required when called:    4
  2613 ;; This function calls:
  2614 ;;		Nothing
  2615 ;; This function is called by:
  2616 ;;		_SYSTEM_Initialize
  2617 ;; This function uses a non-reentrant model
  2618 ;;
  2619                           
  2620                           
  2621                           ;psect for function _PIN_MANAGER_Initialize
  2622  0020                     _PIN_MANAGER_Initialize:	
  2623                           
  2624                           ;pin_manager.c: 62: LATA = 0x20;
  2625                           
  2626                           ;incstack = 0
  2627                           ; Regs used in _PIN_MANAGER_Initialize: [wreg+status,2]
  2628  0020  3020               	movlw	32
  2629  0021  0022               	movlb	2	; select bank2
  2630  0022  008C               	movwf	12	;volatile
  2631                           
  2632                           ;pin_manager.c: 63: LATC = 0x00;
  2633  0023  018E               	clrf	14	;volatile
  2634                           
  2635                           ;pin_manager.c: 68: TRISA = 0x3E;
  2636  0024  303E               	movlw	62
  2637  0025  0021               	movlb	1	; select bank1
  2638  0026  008C               	movwf	12	;volatile
  2639                           
  2640                           ;pin_manager.c: 69: TRISC = 0x3D;
  2641  0027  303D               	movlw	61
  2642  0028  008E               	movwf	14	;volatile
  2643                           
  2644                           ;pin_manager.c: 74: ANSELC = 0x09;
  2645  0029  3009               	movlw	9
  2646  002A  0023               	movlb	3	; select bank3
  2647  002B  008E               	movwf	14	;volatile
  2648                           
  2649                           ;pin_manager.c: 75: ANSELA = 0x13;
  2650  002C  3013               	movlw	19
  2651  002D  008C               	movwf	12	;volatile
  2652                           
  2653                           ;pin_manager.c: 80: WPUA = 0x00;
  2654  002E  0024               	movlb	4	; select bank4
  2655  002F  018C               	clrf	12	;volatile
  2656                           
  2657                           ;pin_manager.c: 81: OPTION_REGbits.nWPUEN = 1;
  2658  0030  0021               	movlb	1	; select bank1
  2659  0031  1795               	bsf	21,7	;volatile
  2660                           
  2661                           ;pin_manager.c: 90: APFCON = 0x00;
  2662  0032  0022               	movlb	2	; select bank2
  2663  0033  019D               	clrf	29	;volatile
  2664                           
  2665                           ;pin_manager.c: 93: INTCONbits.IOCIE = 1;
  2666  0034  158B               	bsf	11,3	;volatile
  2667  0035  0008               	return
  2668  0036                     __end_of_PIN_MANAGER_Initialize:	
  2669                           
  2670                           	psect	text11
  2671  0096                     __ptext11:	
  2672 ;; *************** function _OSCILLATOR_Initialize *****************
  2673 ;; Defined at:
  2674 ;;		line 62 in file "mcc_generated_files/mcc.c"
  2675 ;; Parameters:    Size  Location     Type
  2676 ;;		None
  2677 ;; Auto vars:     Size  Location     Type
  2678 ;;		None
  2679 ;; Return value:  Size  Location     Type
  2680 ;;                  1    wreg      void 
  2681 ;; Registers used:
  2682 ;;		wreg, status,2
  2683 ;; Tracked objects:
  2684 ;;		On entry : 0/0
  2685 ;;		On exit  : 0/0
  2686 ;;		Unchanged: 0/0
  2687 ;; Data sizes:     COMMON   BANK0   BANK1
  2688 ;;      Params:         0       0       0
  2689 ;;      Locals:         0       0       0
  2690 ;;      Temps:          0       0       0
  2691 ;;      Totals:         0       0       0
  2692 ;;Total ram usage:        0 bytes
  2693 ;; Hardware stack levels used:    1
  2694 ;; Hardware stack levels required when called:    4
  2695 ;; This function calls:
  2696 ;;		Nothing
  2697 ;; This function is called by:
  2698 ;;		_SYSTEM_Initialize
  2699 ;; This function uses a non-reentrant model
  2700 ;;
  2701                           
  2702                           
  2703                           ;psect for function _OSCILLATOR_Initialize
  2704  0096                     _OSCILLATOR_Initialize:	
  2705                           
  2706                           ;mcc.c: 65: OSCCON = 0x7A;
  2707                           
  2708                           ;incstack = 0
  2709                           ; Regs used in _OSCILLATOR_Initialize: [wreg+status,2]
  2710  0096  307A               	movlw	122
  2711  0097  0021               	movlb	1	; select bank1
  2712  0098  0099               	movwf	25	;volatile
  2713                           
  2714                           ;mcc.c: 67: BORCON = 0x00;
  2715  0099  0022               	movlb	2	; select bank2
  2716  009A  0196               	clrf	22	;volatile
  2717  009B  0008               	return
  2718  009C                     __end_of_OSCILLATOR_Initialize:	
  2719                           
  2720                           	psect	text12
  2721  007A                     __ptext12:	
  2722 ;; *************** function _EXT_INT_Initialize *****************
  2723 ;; Defined at:
  2724 ;;		line 61 in file "mcc_generated_files/ext_int.c"
  2725 ;; Parameters:    Size  Location     Type
  2726 ;;		None
  2727 ;; Auto vars:     Size  Location     Type
  2728 ;;		None
  2729 ;; Return value:  Size  Location     Type
  2730 ;;                  1    wreg      void 
  2731 ;; Registers used:
  2732 ;;		wreg, status,2, status,0, pclath, cstack
  2733 ;; Tracked objects:
  2734 ;;		On entry : 0/0
  2735 ;;		On exit  : 0/0
  2736 ;;		Unchanged: 0/0
  2737 ;; Data sizes:     COMMON   BANK0   BANK1
  2738 ;;      Params:         0       0       0
  2739 ;;      Locals:         0       0       0
  2740 ;;      Temps:          0       0       0
  2741 ;;      Totals:         0       0       0
  2742 ;;Total ram usage:        0 bytes
  2743 ;; Hardware stack levels used:    1
  2744 ;; Hardware stack levels required when called:    5
  2745 ;; This function calls:
  2746 ;;		_INT_SetInterruptHandler
  2747 ;; This function is called by:
  2748 ;;		_SYSTEM_Initialize
  2749 ;; This function uses a non-reentrant model
  2750 ;;
  2751                           
  2752                           
  2753                           ;psect for function _EXT_INT_Initialize
  2754  007A                     _EXT_INT_Initialize:	
  2755                           
  2756                           ;ext_int.c: 67: INTCONbits.T0IF = 0;
  2757                           
  2758                           ;incstack = 0
  2759                           ; Regs used in _EXT_INT_Initialize: [wreg+status,2+status,0+pclath+cstack]
  2760  007A  110B               	bcf	11,2	;volatile
  2761                           
  2762                           ;ext_int.c: 69: OPTION_REGbits.INTEDG = 1;
  2763  007B  0021               	movlb	1	; select bank1
  2764  007C  1715               	bsf	21,6	;volatile
  2765                           
  2766                           ;ext_int.c: 71: INT_SetInterruptHandler(INT_DefaultInterruptHandler);
  2767  007D  30BF               	movlw	low _INT_DefaultInterruptHandler
  2768  007E  00FA               	movwf	INT_SetInterruptHandler@InterruptHandler
  2769  007F  3000               	movlw	high _INT_DefaultInterruptHandler
  2770  0080  00FB               	movwf	INT_SetInterruptHandler@InterruptHandler+1
  2771  0081  20AB               	fcall	_INT_SetInterruptHandler
  2772                           
  2773                           ;ext_int.c: 73: INTCONbits.INTE = 1;
  2774  0082  160B               	bsf	11,4	;volatile
  2775  0083  0008               	return
  2776  0084                     __end_of_EXT_INT_Initialize:	
  2777                           
  2778                           	psect	text13
  2779  00AB                     __ptext13:	
  2780 ;; *************** function _INT_SetInterruptHandler *****************
  2781 ;; Defined at:
  2782 ;;		line 52 in file "mcc_generated_files/ext_int.c"
  2783 ;; Parameters:    Size  Location     Type
  2784 ;;  InterruptHan    2    1[COMMON] PTR FTN()void 
  2785 ;;		 -> INT_DefaultInterruptHandler(1), 
  2786 ;; Auto vars:     Size  Location     Type
  2787 ;;		None
  2788 ;; Return value:  Size  Location     Type
  2789 ;;                  1    wreg      void 
  2790 ;; Registers used:
  2791 ;;		wreg
  2792 ;; Tracked objects:
  2793 ;;		On entry : 0/0
  2794 ;;		On exit  : 0/0
  2795 ;;		Unchanged: 0/0
  2796 ;; Data sizes:     COMMON   BANK0   BANK1
  2797 ;;      Params:         2       0       0
  2798 ;;      Locals:         0       0       0
  2799 ;;      Temps:          0       0       0
  2800 ;;      Totals:         2       0       0
  2801 ;;Total ram usage:        2 bytes
  2802 ;; Hardware stack levels used:    1
  2803 ;; Hardware stack levels required when called:    4
  2804 ;; This function calls:
  2805 ;;		Nothing
  2806 ;; This function is called by:
  2807 ;;		_EXT_INT_Initialize
  2808 ;; This function uses a non-reentrant model
  2809 ;;
  2810                           
  2811                           
  2812                           ;psect for function _INT_SetInterruptHandler
  2813  00AB                     _INT_SetInterruptHandler:	
  2814                           
  2815                           ;ext_int.c: 53: INT_InterruptHandler = InterruptHandler;
  2816                           
  2817                           ;incstack = 0
  2818                           ; Regs used in _INT_SetInterruptHandler: [wreg]
  2819  00AB  087B               	movf	INT_SetInterruptHandler@InterruptHandler+1,w
  2820  00AC  00F7               	movwf	_INT_InterruptHandler+1
  2821  00AD  087A               	movf	INT_SetInterruptHandler@InterruptHandler,w
  2822  00AE  00F6               	movwf	_INT_InterruptHandler
  2823  00AF  0008               	return
  2824  00B0                     __end_of_INT_SetInterruptHandler:	
  2825                           
  2826                           	psect	text14
  2827  006F                     __ptext14:	
  2828 ;; *************** function _ADC_Initialize *****************
  2829 ;; Defined at:
  2830 ;;		line 65 in file "mcc_generated_files/adc.c"
  2831 ;; Parameters:    Size  Location     Type
  2832 ;;		None
  2833 ;; Auto vars:     Size  Location     Type
  2834 ;;		None
  2835 ;; Return value:  Size  Location     Type
  2836 ;;                  1    wreg      void 
  2837 ;; Registers used:
  2838 ;;		wreg, status,2
  2839 ;; Tracked objects:
  2840 ;;		On entry : 0/0
  2841 ;;		On exit  : 0/0
  2842 ;;		Unchanged: 0/0
  2843 ;; Data sizes:     COMMON   BANK0   BANK1
  2844 ;;      Params:         0       0       0
  2845 ;;      Locals:         0       0       0
  2846 ;;      Temps:          0       0       0
  2847 ;;      Totals:         0       0       0
  2848 ;;Total ram usage:        0 bytes
  2849 ;; Hardware stack levels used:    1
  2850 ;; Hardware stack levels required when called:    4
  2851 ;; This function calls:
  2852 ;;		Nothing
  2853 ;; This function is called by:
  2854 ;;		_SYSTEM_Initialize
  2855 ;; This function uses a non-reentrant model
  2856 ;;
  2857                           
  2858                           
  2859                           ;psect for function _ADC_Initialize
  2860  006F                     _ADC_Initialize:	
  2861                           
  2862                           ;adc.c: 70: ADCON0 = 0x01;
  2863                           
  2864                           ;incstack = 0
  2865                           ; Regs used in _ADC_Initialize: [wreg+status,2]
  2866  006F  3001               	movlw	1
  2867  0070  0021               	movlb	1	; select bank1
  2868  0071  009D               	movwf	29	;volatile
  2869                           
  2870                           ;adc.c: 73: ADCON1 = 0x02;
  2871  0072  3002               	movlw	2
  2872  0073  009E               	movwf	30	;volatile
  2873                           
  2874                           ;adc.c: 76: ADCON2 = 0x30;
  2875  0074  3030               	movlw	48
  2876  0075  009F               	movwf	31	;volatile
  2877                           
  2878                           ;adc.c: 79: ADRESL = 0x00;
  2879  0076  019B               	clrf	27	;volatile
  2880                           
  2881                           ;adc.c: 82: ADRESH = 0x00;
  2882  0077  019C               	clrf	28	;volatile
  2883                           
  2884                           ;adc.c: 85: PIE1bits.ADIE = 1;
  2885  0078  1711               	bsf	17,6	;volatile
  2886  0079  0008               	return
  2887  007A                     __end_of_ADC_Initialize:	
  2888                           
  2889                           	psect	intentry
  2890  0004                     __pintentry:	
  2891 ;; *************** function _INTERRUPT_InterruptManager *****************
  2892 ;; Defined at:
  2893 ;;		line 52 in file "mcc_generated_files/interrupt_manager.c"
  2894 ;; Parameters:    Size  Location     Type
  2895 ;;		None
  2896 ;; Auto vars:     Size  Location     Type
  2897 ;;		None
  2898 ;; Return value:  Size  Location     Type
  2899 ;;                  1    wreg      void 
  2900 ;; Registers used:
  2901 ;;		wreg, status,2, status,0, pclath, cstack
  2902 ;; Tracked objects:
  2903 ;;		On entry : 0/0
  2904 ;;		On exit  : 0/0
  2905 ;;		Unchanged: 0/0
  2906 ;; Data sizes:     COMMON   BANK0   BANK1
  2907 ;;      Params:         0       0       0
  2908 ;;      Locals:         0       0       0
  2909 ;;      Temps:          1       0       0
  2910 ;;      Totals:         1       0       0
  2911 ;;Total ram usage:        1 bytes
  2912 ;; Hardware stack levels used:    1
  2913 ;; Hardware stack levels required when called:    3
  2914 ;; This function calls:
  2915 ;;		_ADC_ISR
  2916 ;;		_INT_ISR
  2917 ;; This function is called by:
  2918 ;;		Interrupt level 1
  2919 ;; This function uses a non-reentrant model
  2920 ;;
  2921                           
  2922  0004                     _INTERRUPT_InterruptManager:	
  2923                           
  2924                           ;incstack = 0
  2925  0004  147E               	bsf	126,0	;set compiler interrupt flag (level 1)
  2926                           
  2927                           ; Regs used in _INTERRUPT_InterruptManager: [wreg+status,2+status,0+pclath+cstack]
  2928  0005  3180               	pagesel	$
  2929  0006  0020               	movlb	0	; select bank0
  2930  0007  087F               	movf	127,w
  2931  0008  00F9               	movwf	??_INTERRUPT_InterruptManager
  2932                           
  2933                           ;interrupt_manager.c: 55: if(INTCONbits.INTE == 1 && INTCONbits.INTF == 1)
  2934  0009  1A0B               	btfsc	11,4	;volatile
  2935  000A  1C8B               	btfss	11,1	;volatile
  2936  000B  280E               	goto	i1l114
  2937                           
  2938                           ;interrupt_manager.c: 56: {
  2939                           ;interrupt_manager.c: 57: INT_ISR();
  2940  000C  20B7               	fcall	_INT_ISR
  2941                           
  2942                           ;interrupt_manager.c: 58: }
  2943  000D  2817               	goto	i1l120
  2944  000E                     i1l114:	
  2945                           
  2946                           ;interrupt_manager.c: 59: else if(INTCONbits.PEIE == 1)
  2947  000E  1F0B               	btfss	11,6	;volatile
  2948  000F  2817               	goto	i1l120
  2949                           
  2950                           ;interrupt_manager.c: 60: {
  2951                           ;interrupt_manager.c: 61: if(PIE1bits.ADIE == 1 && PIR1bits.ADIF == 1)
  2952  0010  0021               	movlb	1	; select bank1
  2953  0011  1F11               	btfss	17,6	;volatile
  2954  0012  2817               	goto	i1l120
  2955  0013  0020               	movlb	0	; select bank0
  2956  0014  1F11               	btfss	17,6	;volatile
  2957  0015  2817               	goto	i1l120
  2958                           
  2959                           ;interrupt_manager.c: 62: {
  2960                           ;interrupt_manager.c: 63: ADC_ISR();
  2961  0016  20BA               	fcall	_ADC_ISR
  2962  0017                     i1l120:	
  2963                           ;interrupt_manager.c: 70: else
  2964                           ;interrupt_manager.c: 71: {
  2965                           
  2966                           ;interrupt_manager.c: 68: }
  2967                           ;interrupt_manager.c: 69: }
  2968                           
  2969                           ;interrupt_manager.c: 65: else
  2970                           ;interrupt_manager.c: 66: {
  2971                           
  2972                           ;interrupt_manager.c: 64: }
  2973                           
  2974  0017  0879               	movf	??_INTERRUPT_InterruptManager,w
  2975  0018  0020               	movlb	0	; select bank0
  2976  0019  00FF               	movwf	127
  2977  001A  107E               	bcf	126,0	;clear compiler interrupt flag (level 1)
  2978  001B  0009               	retfie
  2979  001C                     __end_of_INTERRUPT_InterruptManager:	
  2980                           
  2981                           	psect	text16
  2982  00B7                     __ptext16:	
  2983 ;; *************** function _INT_ISR *****************
  2984 ;; Defined at:
  2985 ;;		line 33 in file "mcc_generated_files/ext_int.c"
  2986 ;; Parameters:    Size  Location     Type
  2987 ;;		None
  2988 ;; Auto vars:     Size  Location     Type
  2989 ;;		None
  2990 ;; Return value:  Size  Location     Type
  2991 ;;                  1    wreg      void 
  2992 ;; Registers used:
  2993 ;;		wreg, status,2, status,0, pclath, cstack
  2994 ;; Tracked objects:
  2995 ;;		On entry : 0/0
  2996 ;;		On exit  : 0/0
  2997 ;;		Unchanged: 0/0
  2998 ;; Data sizes:     COMMON   BANK0   BANK1
  2999 ;;      Params:         0       0       0
  3000 ;;      Locals:         0       0       0
  3001 ;;      Temps:          0       0       0
  3002 ;;      Totals:         0       0       0
  3003 ;;Total ram usage:        0 bytes
  3004 ;; Hardware stack levels used:    1
  3005 ;; Hardware stack levels required when called:    2
  3006 ;; This function calls:
  3007 ;;		_INT_CallBack
  3008 ;; This function is called by:
  3009 ;;		_INTERRUPT_InterruptManager
  3010 ;; This function uses a non-reentrant model
  3011 ;;
  3012                           
  3013                           
  3014                           ;psect for function _INT_ISR
  3015  00B7                     _INT_ISR:	
  3016                           
  3017                           ;ext_int.c: 36: INTCONbits.T0IF = 0;
  3018                           
  3019                           ;incstack = 0
  3020                           ; Regs used in _INT_ISR: [wreg+status,2+status,0+pclath+cstack]
  3021  00B7  110B               	bcf	11,2	;volatile
  3022                           
  3023                           ;ext_int.c: 39: INT_CallBack();
  3024  00B8  2084               	fcall	_INT_CallBack
  3025  00B9  0008               	return
  3026  00BA                     __end_of_INT_ISR:	
  3027                           
  3028                           	psect	text17
  3029  0084                     __ptext17:	
  3030 ;; *************** function _INT_CallBack *****************
  3031 ;; Defined at:
  3032 ;;		line 43 in file "mcc_generated_files/ext_int.c"
  3033 ;; Parameters:    Size  Location     Type
  3034 ;;		None
  3035 ;; Auto vars:     Size  Location     Type
  3036 ;;		None
  3037 ;; Return value:  Size  Location     Type
  3038 ;;                  1    wreg      void 
  3039 ;; Registers used:
  3040 ;;		wreg, status,2, status,0, pclath, cstack
  3041 ;; Tracked objects:
  3042 ;;		On entry : 0/0
  3043 ;;		On exit  : 0/0
  3044 ;;		Unchanged: 0/0
  3045 ;; Data sizes:     COMMON   BANK0   BANK1
  3046 ;;      Params:         0       0       0
  3047 ;;      Locals:         0       0       0
  3048 ;;      Temps:          0       0       0
  3049 ;;      Totals:         0       0       0
  3050 ;;Total ram usage:        0 bytes
  3051 ;; Hardware stack levels used:    1
  3052 ;; Hardware stack levels required when called:    1
  3053 ;; This function calls:
  3054 ;;		Absolute function
  3055 ;;		_INT_DefaultInterruptHandler
  3056 ;; This function is called by:
  3057 ;;		_INT_ISR
  3058 ;; This function uses a non-reentrant model
  3059 ;;
  3060                           
  3061                           
  3062                           ;psect for function _INT_CallBack
  3063  0084                     _INT_CallBack:	
  3064                           
  3065                           ;ext_int.c: 46: if(INT_InterruptHandler)
  3066                           
  3067                           ;incstack = 0
  3068                           ; Regs used in _INT_CallBack: [wreg+status,2+status,0+pclath+cstack]
  3069  0084  0876               	movf	_INT_InterruptHandler,w
  3070  0085  0477               	iorwf	_INT_InterruptHandler+1,w
  3071  0086  1903               	btfsc	3,2
  3072  0087  0008               	return
  3073                           
  3074                           ;ext_int.c: 47: {
  3075                           ;ext_int.c: 48: INT_InterruptHandler();
  3076  0088  0877               	movf	_INT_InterruptHandler+1,w
  3077  0089  008A               	movwf	10
  3078  008A  0876               	movf	_INT_InterruptHandler,w
  3079  008B  000A               	callw
  3080  008C  3180               	pagesel	$
  3081  008D  0008               	return
  3082  008E                     __end_of_INT_CallBack:	
  3083                           
  3084                           	psect	text18
  3085  00BF                     __ptext18:	
  3086 ;; *************** function _INT_DefaultInterruptHandler *****************
  3087 ;; Defined at:
  3088 ;;		line 56 in file "mcc_generated_files/ext_int.c"
  3089 ;; Parameters:    Size  Location     Type
  3090 ;;		None
  3091 ;; Auto vars:     Size  Location     Type
  3092 ;;		None
  3093 ;; Return value:  Size  Location     Type
  3094 ;;                  1    wreg      void 
  3095 ;; Registers used:
  3096 ;;		None
  3097 ;; Tracked objects:
  3098 ;;		On entry : 0/0
  3099 ;;		On exit  : 0/0
  3100 ;;		Unchanged: 0/0
  3101 ;; Data sizes:     COMMON   BANK0   BANK1
  3102 ;;      Params:         0       0       0
  3103 ;;      Locals:         0       0       0
  3104 ;;      Temps:          0       0       0
  3105 ;;      Totals:         0       0       0
  3106 ;;Total ram usage:        0 bytes
  3107 ;; Hardware stack levels used:    1
  3108 ;; This function calls:
  3109 ;;		Nothing
  3110 ;; This function is called by:
  3111 ;;		_EXT_INT_Initialize
  3112 ;;		_INT_CallBack
  3113 ;; This function uses a non-reentrant model
  3114 ;;
  3115                           
  3116                           
  3117                           ;psect for function _INT_DefaultInterruptHandler
  3118  00BF                     _INT_DefaultInterruptHandler:	
  3119                           
  3120                           ;incstack = 0
  3121                           ; Regs used in _INT_DefaultInterruptHandler: []
  3122  00BF  0008               	return
  3123  00C0                     __end_of_INT_DefaultInterruptHandler:	
  3124                           
  3125                           	psect	text19
  3126  00BA                     __ptext19:	
  3127 ;; *************** function _ADC_ISR *****************
  3128 ;; Defined at:
  3129 ;;		line 143 in file "mcc_generated_files/adc.c"
  3130 ;; Parameters:    Size  Location     Type
  3131 ;;		None
  3132 ;; Auto vars:     Size  Location     Type
  3133 ;;		None
  3134 ;; Return value:  Size  Location     Type
  3135 ;;                  1    wreg      void 
  3136 ;; Registers used:
  3137 ;;		None
  3138 ;; Tracked objects:
  3139 ;;		On entry : 0/0
  3140 ;;		On exit  : 0/0
  3141 ;;		Unchanged: 0/0
  3142 ;; Data sizes:     COMMON   BANK0   BANK1
  3143 ;;      Params:         0       0       0
  3144 ;;      Locals:         0       0       0
  3145 ;;      Temps:          0       0       0
  3146 ;;      Totals:         0       0       0
  3147 ;;Total ram usage:        0 bytes
  3148 ;; Hardware stack levels used:    1
  3149 ;; This function calls:
  3150 ;;		Nothing
  3151 ;; This function is called by:
  3152 ;;		_INTERRUPT_InterruptManager
  3153 ;; This function uses a non-reentrant model
  3154 ;;
  3155                           
  3156                           
  3157                           ;psect for function _ADC_ISR
  3158  00BA                     _ADC_ISR:	
  3159                           
  3160                           ;adc.c: 146: PIR1bits.ADIF = 0;
  3161                           
  3162                           ;incstack = 0
  3163                           ; Regs used in _ADC_ISR: []
  3164  00BA  0020               	movlb	0	; select bank0
  3165  00BB  1311               	bcf	17,6	;volatile
  3166  00BC  0008               	return
  3167  00BD                     __end_of_ADC_ISR:	
  3168  007E                     btemp	set	126	;btemp
  3169  007E                     int$flags	set	126
  3170  007E                     wtemp0	set	126


Data Sizes:
    Strings     0
    Constant    0
    Data        0
    BSS         0
    Persistent  9
    Stack       0

Auto Spaces:
    Space          Size  Autos    Used
    COMMON           14      4      13
    BANK0            80      0       0
    BANK1            32      0       0

Pointer List with Targets:

    TMR1_SetInterruptHandler@InterruptHandler	PTR FTN()void  size(2) Largest target is 1
		 -> TMR1_DefaultInterruptHandler(), 

    TMR1_InterruptHandler	PTR FTN()void  size(2) Largest target is 1
		 -> TMR1_DefaultInterruptHandler(), Absolute function(), 

    TMR0_SetInterruptHandler@InterruptHandler	PTR FTN()void  size(2) Largest target is 1
		 -> TMR0_DefaultInterruptHandler(), 

    TMR0_InterruptHandler	PTR FTN()void  size(2) Largest target is 1
		 -> TMR0_DefaultInterruptHandler(), Absolute function(), 

    INT_SetInterruptHandler@InterruptHandler	PTR FTN()void  size(2) Largest target is 1
		 -> INT_DefaultInterruptHandler(), 

    INT_InterruptHandler	PTR FTN()void  size(2) Largest target is 1
		 -> INT_DefaultInterruptHandler(), Absolute function(), 


Critical Paths under _main in COMMON

    _SYSTEM_Initialize->_TMR0_Initialize
    _TMR1_Initialize->_TMR1_SetInterruptHandler
    _TMR0_Initialize->_TMR0_SetInterruptHandler
    _EXT_INT_Initialize->_INT_SetInterruptHandler

Critical Paths under _INTERRUPT_InterruptManager in COMMON

    None.

Critical Paths under _main in BANK0

    None.

Critical Paths under _INTERRUPT_InterruptManager in BANK0

    None.

Critical Paths under _main in BANK1

    None.

Critical Paths under _INTERRUPT_InterruptManager in BANK1

    None.

Call Graph Tables:

 ---------------------------------------------------------------------------------
 (Depth) Function   	        Calls       Base Space   Used Autos Params    Refs
 ---------------------------------------------------------------------------------
 (0) _main                                                 0     0      0     258
                  _SYSTEM_Initialize
                            _sendbit
 ---------------------------------------------------------------------------------
 (1) _sendbit                                              0     0      0       0
                    _TMR1_StartTimer
                  _isDeviceConnected
 ---------------------------------------------------------------------------------
 (2) _isDeviceConnected                                    0     0      0       0
 ---------------------------------------------------------------------------------
 (2) _TMR1_StartTimer                                      0     0      0       0
 ---------------------------------------------------------------------------------
 (1) _SYSTEM_Initialize                                    0     0      0     258
                     _ADC_Initialize
                 _EXT_INT_Initialize
              _OSCILLATOR_Initialize
             _PIN_MANAGER_Initialize
                    _TMR0_Initialize
                    _TMR1_Initialize
                     _WDT_Initialize
 ---------------------------------------------------------------------------------
 (2) _WDT_Initialize                                       0     0      0       0
 ---------------------------------------------------------------------------------
 (2) _TMR1_Initialize                                      0     0      0      86
           _TMR1_SetInterruptHandler
 ---------------------------------------------------------------------------------
 (3) _TMR1_SetInterruptHandler                             2     0      2      86
                                              1 COMMON     2     0      2
 ---------------------------------------------------------------------------------
 (2) _TMR0_Initialize                                      1     1      0      86
                                              3 COMMON     1     1      0
           _TMR0_SetInterruptHandler
 ---------------------------------------------------------------------------------
 (3) _TMR0_SetInterruptHandler                             2     0      2      86
                                              1 COMMON     2     0      2
 ---------------------------------------------------------------------------------
 (2) _PIN_MANAGER_Initialize                               0     0      0       0
 ---------------------------------------------------------------------------------
 (2) _OSCILLATOR_Initialize                                0     0      0       0
 ---------------------------------------------------------------------------------
 (2) _EXT_INT_Initialize                                   0     0      0      86
            _INT_SetInterruptHandler
 ---------------------------------------------------------------------------------
 (3) _INT_SetInterruptHandler                              2     0      2      86
                                              1 COMMON     2     0      2
 ---------------------------------------------------------------------------------
 (2) _ADC_Initialize                                       0     0      0       0
 ---------------------------------------------------------------------------------
 Estimated maximum stack depth 3
 ---------------------------------------------------------------------------------
 (Depth) Function   	        Calls       Base Space   Used Autos Params    Refs
 ---------------------------------------------------------------------------------
 (4) _INTERRUPT_InterruptManager                           1     1      0       0
                                              0 COMMON     1     1      0
                            _ADC_ISR
                            _INT_ISR
 ---------------------------------------------------------------------------------
 (5) _INT_ISR                                              0     0      0       0
                       _INT_CallBack
 ---------------------------------------------------------------------------------
 (6) _INT_CallBack                                         0     0      0       0
                   Absolute function *
        _INT_DefaultInterruptHandler *
 ---------------------------------------------------------------------------------
 (7) _INT_DefaultInterruptHandler                          0     0      0       0
 ---------------------------------------------------------------------------------
 (7) Absolute function(Fake)                               0     0      0       0
 ---------------------------------------------------------------------------------
 (5) _ADC_ISR                                              0     0      0       0
 ---------------------------------------------------------------------------------
 Estimated maximum stack depth 7
 ---------------------------------------------------------------------------------

 Call Graph Graphs:

 _main (ROOT)
   _SYSTEM_Initialize
     _ADC_Initialize
     _EXT_INT_Initialize
       _INT_SetInterruptHandler
     _OSCILLATOR_Initialize
     _PIN_MANAGER_Initialize
     _TMR0_Initialize
       _TMR0_SetInterruptHandler
     _TMR1_Initialize
       _TMR1_SetInterruptHandler
     _WDT_Initialize
   _sendbit
     _TMR1_StartTimer
     _isDeviceConnected

 _INTERRUPT_InterruptManager (ROOT)
   _ADC_ISR
   _INT_ISR
     _INT_CallBack
       Absolute function(Fake) *
       _INT_DefaultInterruptHandler *

 Address spaces:
Name               Size   Autos  Total    Cost      Usage
BIGRAM              70      0       0       0        0.0%
NULL                 0      0       0       0        0.0%
CODE                 0      0       0       0        0.0%
BITCOMMON            E      0       0       1        0.0%
BITSFR0              0      0       0       1        0.0%
SFR0                 0      0       0       1        0.0%
COMMON               E      4       D       2       92.9%
BITSFR1              0      0       0       2        0.0%
SFR1                 0      0       0       2        0.0%
BITSFR2              0      0       0       3        0.0%
SFR2                 0      0       0       3        0.0%
STACK                0      0       0       3        0.0%
BITSFR3              0      0       0       4        0.0%
SFR3                 0      0       0       4        0.0%
ABS                  0      0       D       4        0.0%
BITBANK0            50      0       0       5        0.0%
BITSFR4              0      0       0       5        0.0%
SFR4                 0      0       0       5        0.0%
BANK0               50      0       0       6        0.0%
BITSFR5              0      0       0       6        0.0%
SFR5                 0      0       0       6        0.0%
BITBANK1            20      0       0       7        0.0%
BITSFR6              0      0       0       7        0.0%
SFR6                 0      0       0       7        0.0%
BANK1               20      0       0       8        0.0%
BITSFR7              0      0       0       8        0.0%
SFR7                 0      0       0       8        0.0%
BITSFR8              0      0       0       9        0.0%
SFR8                 0      0       0       9        0.0%
DATA                 0      0       D       9        0.0%
BITSFR9              0      0       0      10        0.0%
SFR9                 0      0       0      10        0.0%
BITSFR10             0      0       0      11        0.0%
SFR10                0      0       0      11        0.0%
BITSFR11             0      0       0      12        0.0%
SFR11                0      0       0      12        0.0%
BITSFR12             0      0       0      13        0.0%
SFR12                0      0       0      13        0.0%
BITSFR13             0      0       0      14        0.0%
SFR13                0      0       0      14        0.0%
BITSFR14             0      0       0      15        0.0%
SFR14                0      0       0      15        0.0%
BITSFR15             0      0       0      16        0.0%
SFR15                0      0       0      16        0.0%
BITSFR16             0      0       0      17        0.0%
SFR16                0      0       0      17        0.0%
BITSFR17             0      0       0      18        0.0%
SFR17                0      0       0      18        0.0%
BITSFR18             0      0       0      19        0.0%
SFR18                0      0       0      19        0.0%
BITSFR19             0      0       0      20        0.0%
SFR19                0      0       0      20        0.0%
BITSFR20             0      0       0      21        0.0%
SFR20                0      0       0      21        0.0%
BITSFR21             0      0       0      22        0.0%
SFR21                0      0       0      22        0.0%
BITSFR22             0      0       0      23        0.0%
SFR22                0      0       0      23        0.0%
BITSFR23             0      0       0      24        0.0%
SFR23                0      0       0      24        0.0%
BITSFR24             0      0       0      25        0.0%
SFR24                0      0       0      25        0.0%
BITSFR25             0      0       0      26        0.0%
SFR25                0      0       0      26        0.0%
BITSFR26             0      0       0      27        0.0%
SFR26                0      0       0      27        0.0%
BITSFR27             0      0       0      28        0.0%
SFR27                0      0       0      28        0.0%
BITSFR28             0      0       0      29        0.0%
SFR28                0      0       0      29        0.0%
BITSFR29             0      0       0      30        0.0%
SFR29                0      0       0      30        0.0%
BITSFR30             0      0       0      31        0.0%
SFR30                0      0       0      31        0.0%
BITSFR31             0      0       0      32        0.0%
SFR31                0      0       0      32        0.0%


Microchip Technology PIC Macro Assembler V1.41 build -162212810 
Symbol Table                                                                                   Tue Jul 24 16:46:45 2018

                             __CFG_CP$OFF 0000                           _timer0ReloadVal 0078  
                             __CFG_LVP$ON 0000                                       l307 0061  
                                     l292 009F                                       l806 006D  
                         _timer1ReloadVal 0072                           __end_of_ADC_ISR 00BD  
                            __CFG_BORV$LO 0000                                      _LATA 010C  
                         __end_of_INT_ISR 00BA                                      _LATC 010E  
                                    _TMR0 0015                                      _WPUA 020C  
                            __CFG_WRT$OFF 0000                                      _main 009C  
                                    btemp 007E       __end_of_INT_DefaultInterruptHandler 00C0  
             _INT_DefaultInterruptHandler 00BF                                      start 001C  
         __end_of_INT_SetInterruptHandler 00B0                ??_TMR1_SetInterruptHandler 007C  
                           __CFG_MCLRE$ON 0000                   __end_of_TMR0_Initialize 005E  
          __size_of_OSCILLATOR_Initialize 0006             __end_of_OSCILLATOR_Initialize 009C  
                                   ?_main 0079                             __CFG_WDTE$OFF 0000  
                         _TMR1_StartTimer 00B4                                     _T1CON 0018  
                                   i1l120 0017                                     i1l114 000E  
                                   _TMR1H 0017                                     _TMR1L 0016  
                                   _TRISA 008C                                     _TRISC 008E  
       __size_of_TMR0_SetInterruptHandler 0005                 ?_TMR0_SetInterruptHandler 007A  
                          _WDT_Initialize 00B0                           __end_of_sendbit 006F  
                 __end_of_TMR1_Initialize 004A                            __CFG_BOREN$OFF 0000  
                                   pclath 000A                                     status 0003  
                                   wtemp0 007E                           __initialization 001D  
                            __end_of_main 00A1                                 ??_ADC_ISR 0079  
                          __CFG_LPBOR$OFF 0000               ?_INTERRUPT_InterruptManager 0079  
                                  ??_main 007D                    __end_of_WDT_Initialize 00B4  
                               ??_INT_ISR 0079                                    _ADCON0 009D  
                                  _ADCON1 009E                                    _ADCON2 009F  
                                  _ADRESH 009C                                    _ADRESL 009B  
                                  _APFCON 011D                                    _ANSELA 018C  
                                  _ANSELC 018E                                    _BORCON 0116  
                                  _T1GCON 0019                                    _OSCCON 0099  
                                  _WDTCON 0097                            __CFG_PWRTE$OFF 0000  
            _TMR1_DefaultInterruptHandler 0000                   __end_of_TMR1_StartTimer 00B7  
                          __CFG_STVREN$ON 0000                          ?_TMR0_Initialize 0079  
                           ?_INT_CallBack 0079                                 ??_sendbit 007A  
                         ?_WDT_Initialize 0079          __size_of_INT_SetInterruptHandler 0005  
TMR1_SetInterruptHandler@InterruptHandler 007A  TMR0_SetInterruptHandler@InterruptHandler 007A  
 INT_SetInterruptHandler@InterruptHandler 007A                          ?_TMR1_Initialize 0079  
                       _SYSTEM_Initialize 008E                   __end_of__initialization 001D  
                      ?_SYSTEM_Initialize 0079                            __pcstackCOMMON 0079  
                     ??_SYSTEM_Initialize 007D                            ??_INT_CallBack 0079  
             __size_of_EXT_INT_Initialize 000A                            _OPTION_REGbits 0095  
               __end_of_SYSTEM_Initialize 0096                                __pnvCOMMON 0070  
                              __pmaintext 009C          __end_of_TMR0_SetInterruptHandler 00AB  
                        ?_TMR1_StartTimer 0079                                __pintentry 0004  
                                 _DACCON0 0118                                   _DACCON1 0119  
                                 _CM1CON0 0111                                   _CM1CON1 0112  
                                 _ADC_ISR 00BA                   __size_of_ADC_Initialize 000B  
                                 _INT_ISR 00B7                                   _PWM1DCH 0612  
                                 _PWM1DCL 0611                                   _PWM1CON 0613  
                                 __ptext1 005E                                   __ptext2 00BD  
                                 __ptext3 00B4                                   __ptext4 008E  
                                 __ptext5 00B0                                   __ptext6 0036  
                                 __ptext7 00A1                                   __ptext8 004A  
                                 __ptext9 00A6                                 _T1CONbits 0018  
                   _OSCILLATOR_Initialize 0096                                 _CMOUTbits 0115  
       __size_of_TMR1_SetInterruptHandler 0005                  ??_PIN_MANAGER_Initialize 007A  
               ?_TMR1_SetInterruptHandler 007A                   _INT_SetInterruptHandler 00AB  
                                 _sendbit 005E                __size_of_SYSTEM_Initialize 0008  
                    end_of_initialization 001D                      __end_of_INT_CallBack 008E  
                        ??_WDT_Initialize 007A                  _TMR0_SetInterruptHandler 00A6  
                               _PORTCbits 000E                          __CFG_FOSC$INTOSC 0000  
                          _ADC_Initialize 006F                    ?_OSCILLATOR_Initialize 0079  
               ??_INT_SetInterruptHandler 007C                       start_initialization 001D  
                __size_of_TMR0_Initialize 0014           __size_of_PIN_MANAGER_Initialize 0016  
            ?_INT_DefaultInterruptHandler 0079                  __size_of_TMR1_Initialize 0014  
                  __end_of_ADC_Initialize 007A                                  ?_ADC_ISR 0079  
              __end_of_EXT_INT_Initialize 0084                                 ___latbits 0000  
                                ?_INT_ISR 0079                     __size_of_INT_CallBack 000A  
                   _TMR0_InterruptHandler 0074                    _PIN_MANAGER_Initialize 0020  
           ??_INT_DefaultInterruptHandler 0079          __end_of_TMR1_SetInterruptHandler 00A6  
                         ?_ADC_Initialize 0079              ??_INTERRUPT_InterruptManager 0079  
                            _INT_CallBack 0084                  __size_of_TMR1_StartTimer 0003  
                                ?_sendbit 0079                         ??_TMR0_Initialize 007C  
                                _PIE1bits 0091                                  _PIE2bits 0092  
     __size_of_INTERRUPT_InterruptManager 0018                ??_TMR0_SetInterruptHandler 007C  
                                _PIR1bits 0011                                  _PIR2bits 0012  
                       ??_TMR1_Initialize 007C                          __size_of_ADC_ISR 0003  
                              _ADCON0bits 009D      __size_of_INT_DefaultInterruptHandler 0001  
                        __size_of_INT_ISR 0003                         _isDeviceConnected 00BD  
                 ??_OSCILLATOR_Initialize 007A                        ?_isDeviceConnected 0079  
                _TMR1_SetInterruptHandler 00A1                     _TMR1_InterruptHandler 0070  
                     ??_isDeviceConnected 007A                          __size_of_sendbit 0011  
                                __ptext10 0020                                  __ptext11 0096  
                                __ptext12 007A                                  __ptext13 00AB  
                              _T1GCONbits 0019                                  __ptext14 006F  
                                __ptext16 00B7                                  __ptext17 0084  
                                __ptext18 00BF                                  __ptext19 00BA  
                       ??_TMR1_StartTimer 007A                             __size_of_main 0005  
            _TMR0_DefaultInterruptHandler 0000                 __end_of_isDeviceConnected 00BF  
                                int$flags 007E        __end_of_INTERRUPT_InterruptManager 001C  
              _INTERRUPT_InterruptManager 0004                                _INTCONbits 000B  
                    _INT_InterruptHandler 0076                        _EXT_INT_Initialize 007A  
                 __size_of_WDT_Initialize 0004                                  intlevel1 0000  
                 ?_PIN_MANAGER_Initialize 0079                         __CFG_CLKOUTEN$OFF 0000  
                     ?_EXT_INT_Initialize 0079                          ??_ADC_Initialize 007A  
                ?_INT_SetInterruptHandler 007A                      ??_EXT_INT_Initialize 007C  
                              _OPTION_REG 0095                           _TMR0_Initialize 004A  
          __end_of_PIN_MANAGER_Initialize 0036                __size_of_isDeviceConnected 0002  
                         _TMR1_Initialize 0036  
